 01 SAMOS.SR
 11/05/26 07:21:41  SAMOS.SR                                                     01-01



    .TITLE SAMOS.SR
    .PROC Z80
    .REF  FLO
 010000   .LOC  H'1000

    ;SAMOS V2.2  EXTENSION SYSTEME DU SMAKY 6
    ;ZONE 1000H..22FFH (~4.8 KO)

    ;SOURCE RECONSTITUE PAR REVERSE-ENGINEERING DU BINAIRE SYS.SY,
    ;DANS LE CADRE DU TRAVAIL DE CONSERVATION DES SMAKY
    ;FINANCE PAR EPSITEC SA.

    ;AUTEUR PRINCIPAL DE SAMOS : ALAIN CAPT (CONTROLEUR FLOPPY,
    ;FILE SYSTEM ET BEAUCOUP D'AUTRES PARTIES).
    ;D'AUTRES CONTRIBUTEURS QUE NOUS CHERCHONS A IDENTIFIER.

    ;COMPLEMENTE SYS.SR (ZONE 0000H..0FFFH).



    ;DEBUT DU CODE SAMOS
    ;===================


    SAMOS_BASE:
 010000 303 374 040 JUMP L_20FC
    I_RODWIB:
 010003 303 243 037 JUMP DO_RODWIB
    I_RIBWOD:
 010006 303 274 037 JUMP DO_RIBWOD
    I_TSTDRI:
 010011 303 342 032 JUMP DO_TSTDRI
    I_ADBLK:
 010014 303 153 035 JUMP DO_ADBLK
    I_INIFLO:
 010017 303 012 037 JUMP DO_INIFLO
    I_BOOT:
 010022 303 223 020 JUMP DO_BOOT
    I_RTN:
 010025 303 250 020 JUMP DO_RTN
    I_NMIRTN:
 010030 303 273 020 JUMP DO_NMIRTN
 010033 306 022  ADD A,#22
 010035 246  AND A,(HL)
 010036 024  INC D
 010037 120  LOAD D,B
 010040 024  INC D
 010041 253  XOR A,E
 010042 023  INC DE
 010043 321  POP DE
 010044 024  INC D
 010045 222  SUB A,D
 010046 031  ADD HL,DE
 010047 361  POP AF
 010050 025  DEC D
 010051 041 027 005 LOAD HL,#H'0517
 010054 026 045  LOAD D,#45
 010056 027  RLC A
 010057 065  DEC (HL)
 010060 024  INC D
    L_1031:
 11/05/26 07:21:41  SAMOS.SR                                                     01-02



 010061 364 030 342 CALL PL,H'E218
 010064 027  RLC A
 010065 373  ION
 010066 031  ADD HL,DE
 010067 125  LOAD D,L
 010070 027  RLC A
 010071 250  XOR A,B
 010072 020 040  DECJ,NE B,L_105C
 010074 024  INC D
 010075 011  ADD HL,BC
 010076 024  INC D
 010077 014  INC C
 010100 032  LOAD A,(DE)
 010101 162  LOAD (HL),D
 010102 022  LOAD (DE),A
 010103 233  SUBC A,E
 010104 022  LOAD (DE),A
 010105 155  LOAD L,L
 010106 026 200  LOAD D,#H'80
 010110 026 242  LOAD D,#H'A2
 010112 025  DEC D
 010113 342 021 266 JUMP PO,H'B611
 010116 021 305 021 LOAD DE,#H'11C5
 010121 300  RET NE
 010122 021 070 022 LOAD DE,#H'1238
 010125 016 022  LOAD C,#22
 010127 256  XOR A,(HL)
 010130 030 327  JUMP. L_1031
 010132 027  RLC A
 010133 360  RET PL
    L_105C:
 010134 023  INC DE
 010135 333 021  LOAD A,$21
 010137 261  OR A,C
 010140 021 261 021 LOAD DE,#H'11B1
 010143 042 321 053 LOAD H'2BD1,HL
 010146 341  POP HL
 010147 355 163 326 053 LOAD H'2BD6,SP
 010153 043  INC HL
 010154 345  PUSH HL
 010155 042 330 053 LOAD H'2BD8,HL
 010160 053  DEC HL
 010161 335 345  PUSH IX
 010163 345  PUSH HL
 010164 052 321 053 LOAD HL,H'2BD1
 010167 343  EX (SP),HL
 010170 325  PUSH DE
 010171 305  PUSH BC
 010172 365  PUSH AF
 010173 176  LOAD A,(HL)
 010174 313  .B H'CB;SLA A (Zilog)  pas de mnémonique 1re gen
 010175 047  .B H'27
 010176 041 033 020 LOAD HL,#H'101B
 010201 205  ADD A,L
 010202 157  LOAD L,A
 010203 176  LOAD A,(HL)
 010204 043  INC HL
 010205 146  LOAD H,(HL)
 010206 157  LOAD L,A
 010207 361  POP AF
 010210 345  PUSH HL
 11/05/26 07:21:41  SAMOS.SR                                                     01-03



 010211 052 321 053 LOAD HL,H'2BD1
 010214 311  RET

 010215 252  XOR A,D
 010216 102  LOAD B,D
 010217 117  LOAD C,A
 010220 117  LOAD C,A
 010221 124  LOAD D,H
 010222 200  ADD A,B
    DO_BOOT:
 010223 347 136  .W ?TEXTI
 010225 123  LOAD D,E
 010226 101  LOAD B,C
 010227 115  LOAD C,L
 010230 117  LOAD C,A
 010231 123  LOAD D,E
 010232 040 062  JUMP. NE,L_10CE
 010234 055  DEC L
 010235 062 015 000 LOAD H'000D,A
 010240 315 012 037 CALL DO_INIFLO
 010243 021 350 020 LOAD DE,#H'10E8
 010246 327 013  .W ?LGO
    DO_RTN:
 010250 041 377 377 LOAD HL,#H'FFFF
 010253 371  LOAD SP,HL
 010254 042 140 105 LOAD H'4560,HL
 010257 021 325 020 LOAD DE,#H'10D5
 010262 327 013  .W ?LGO
    L_10B4:
 010264 327 030  .W ?ERROR
 010266 347 043  .W ?RETUR
 010270 303 011 010 JUMP H'0809
    DO_NMIRTN:
 010273 257  XOR A,A
 010274 323 031  LOAD $31,A
 010276 347 032  .W ?BUZZ
 010300 315 335 035 CALL L_1DDD
 010303 315 322 021 CALL L_11D2
 010306 041 113 105 LOAD HL,#H'454B
 010311 176  LOAD A,(HL)
 010312 066 000  LOAD (HL),#0
 010314 327 004  .W ?CLOSE
    L_10CE:
 010316 030 330  JUMP. DO_RTN
 010320 104  LOAD B,H
 010321 130  LOAD E,B
 010322 060 072  JUMP. CC,L_110E
 010324 000  NOP
 010325 103  LOAD B,E
 010326 114  LOAD C,H
 010327 111  LOAD C,C
 010330 056 123  LOAD L,#H'53
 010332 131  LOAD E,C
 010333 000  NOP
 010334 105  LOAD B,L
 010335 122  LOAD D,D
 010336 056 123  LOAD L,#H'53
 010340 131  LOAD E,C
 010341 000  NOP
 010342 114  LOAD C,H
 010343 120  LOAD D,B
 11/05/26 07:21:41  SAMOS.SR                                                     01-04



 010344 056 123  LOAD L,#H'53
 010346 131  LOAD E,C
 010347 000  NOP
 010350 123  LOAD D,E
 010351 124  LOAD D,H
 010352 056 123  LOAD L,#H'53
 010354 131  LOAD E,C
 010355 000  NOP
 010356 120  LOAD D,B
 010357 120  LOAD D,B
 010360 200  ADD A,B
 010361 120  LOAD D,B
 010362 122  LOAD D,D
 010363 203  ADD A,E
 010364 120  LOAD D,B
 010365 117  LOAD C,A
 010366 206  ADD A,(HL)
 010367 120  LOAD D,B
 010370 111  LOAD C,C
 010371 211  ADDC A,C
 010372 104  LOAD B,H
 010373 111  LOAD C,C
 010374 123  LOAD D,E
 010375 214  ADDC A,H
 010376 113  LOAD C,E
 010377 105  LOAD B,L
 010400 131  LOAD E,C
 010401 217  ADDC A,A
 010402 114  LOAD C,H
 010403 120  LOAD D,B
 010404 222  SUB A,D
 010405 115  LOAD C,L
 010406 117  LOAD C,A
 010407 225  SUB A,L
 010410 115  LOAD C,L
 010411 111  LOAD C,C
 010412 230  SUBC A,B
 010413 000  NOP
 010414 202  ADD A,D
 010415 047  DAA A
    L_110E:
 010416 021 201 064 LOAD DE,#H'3481
 010421 021 206 174 LOAD DE,#H'7C86
 010424 021 205 211 LOAD DE,#H'8985
 010427 021 242 101 LOAD DE,#H'41A2
 010432 021 241 117 LOAD DE,#H'4FA1
 010435 021 302 134 LOAD DE,#H'5CC2
 010440 021 342 227 LOAD DE,#H'97E2
 010443 021 341 244 LOAD DE,#H'A4E1
 010446 021 072 233 LOAD DE,#H'9B3A
 010451 053  DEC HL
 010452 320  RET CC
    L_112B:
 010453 315 161 021 CALL L_1171
 010456 032  LOAD A,(DE)
 010457 347 046  .W ?IFWPP
 010461 070 370  JUMP. CS,L_112B
 010463 311  RET

 010464 072 233 053 LOAD A,H'2B9B
 010467 320  RET CC
 11/05/26 07:21:41  SAMOS.SR                                                     01-05



    L_1138:
 010470 315 161 021 CALL L_1171
 010473 347 044  .W ?IFRPR
 010475 070 371  JUMP. CS,L_1138
 010477 022  LOAD (DE),A
 010500 311  RET

 010501 072 233 053 LOAD A,H'2B9B
 010504 320  RET CC
    L_1145:
 010505 315 161 021 CALL L_1171
 010510 040 373  JUMP. NE,L_1145
 010512 032  LOAD A,(DE)
 010513 347 000  .W ?DICAR
 010515 267  OR A,A
 010516 311  RET

 010517 072 233 053 LOAD A,H'2B9B
 010522 320  RET CC
    L_1153:
 010523 315 161 021 CALL L_1171
 010526 347 015  .W ?IFCAR
 010530 070 371  JUMP. CS,L_1153
 010532 022  LOAD (DE),A
 010533 311  RET

 010534 365  PUSH AF
 010535 076 001  LOAD A,#1
 010537 325  PUSH DE
 010540 021 342 020 LOAD DE,#H'10E2
 010543 315 366 036 CALL L_1EF6
 010546 321  POP DE
 010547 070 020  JUMP. CS,L_1179
 010551 072 233 053 LOAD A,H'2B9B
 010554 107  LOAD B,A
 010555 361  POP AF
 010556 303 000 043 JUMP H'2300
    L_1171:
 010561 347 016  .W ?GETFO
 010563 310  RET EQ
 010564 376 020  COMP A,#20
 010566 300  RET NE
 010567 076 006  LOAD A,#6
    L_1179:
 010571 341  POP HL
 010572 067  SETC
 010573 311  RET

 010574 072 233 053 LOAD A,H'2B9B
 010577 320  RET CC
    L_1180:
 010600 315 161 021 CALL L_1171
 010603 032  LOAD A,(DE)
 010604 347 053  .W ?IFWPA
 010606 070 370  JUMP. CS,L_1180
 010610 311  RET

 010611 072 233 053 LOAD A,H'2B9B
 010614 320  RET CC
    L_118D:
 010615 315 161 021 CALL L_1171
 11/05/26 07:21:41  SAMOS.SR                                                     01-06



 010620 347 051  .W ?IFRPA
 010622 362 215 021 JUMP PL,L_118D
 010625 022  LOAD (DE),A
 010626 311  RET

 010627 072 233 053 LOAD A,H'2B9B
 010632 320  RET CC
    L_119B:
 010633 315 161 021 CALL L_1171
 010636 032  LOAD A,(DE)
 010637 347 047  .W ?IFWMO
 010641 070 370  JUMP. CS,L_119B
 010643 311  RET

 010644 072 233 053 LOAD A,H'2B9B
 010647 320  RET CC
    L_11A8:
 010650 315 161 021 CALL L_1171
 010653 347 045  .W ?IFRMO
 010655 070 371  JUMP. CS,L_11A8
 010657 022  LOAD (DE),A
 010660 311  RET

 010661 076 110  LOAD A,#H'48
 010663 067  SETC
 010664 030 003  JUMP. L_11B9
 010666 072 227 053 LOAD A,H'2B97
    L_11B9:
 010671 301  POP BC
 010672 321  POP DE
 010673 341  POP HL
 010674 335 341  POP IX
 010676 030 022  JUMP. L_11D2
 010700 315 107 035 CALL L_1D47
 010703 104  LOAD B,H
 010704 115  LOAD C,L
 010705 052 336 053 LOAD HL,H'2BDE
 010710 174  LOAD A,H
 010711 265  OR A,L
 010712 072 342 053 LOAD A,H'2BE2
    L_11CD:
 010715 341  POP HL
 010716 321  POP DE
 010717 341  POP HL
 010720 335 341  POP IX
    L_11D2:
 010722 365  PUSH AF
 010723 072 177 105 LOAD A,H'457F
 010726 323 000  LOAD $0,A
 010730 361  POP AF
 010731 373  ION
 010732 311  RET

 010733 001 062 062 LOAD BC,#H'3232
 010736 076 005  LOAD A,#5
 010740 030 353  JUMP. L_11CD
 010742 365  PUSH AF
 010743 076 002  LOAD A,#2
 010745 021 334 020 LOAD DE,#H'10DC
 010750 315 366 036 CALL L_1EF6
 010753 070 021  JUMP. CS,L_11FE
 11/05/26 07:21:41  SAMOS.SR                                                     01-07



 010755 001 000 003 LOAD BC,#H'0300
 010760 041 000 043 LOAD HL,#H'2300
 010763 361  POP AF
 010764 313  .B H'CB;SET 7,A (Zilog)  pas d'équivalent direct 1re gen
 010765 377  .B H'FF
 010766 355 261  CPIR
 010770 040 005  JUMP. NE,L_11FF
 010772 347 006  .W ?DITEX
 010774 030 273  JUMP. L_11B9
    L_11FE:
 010776 361  POP AF
    L_11FF:
 010777 347 136  .W ?TEXTI
 011001 105  LOAD B,L
 011002 122  LOAD D,D
 011003 122  LOAD D,D
 011004 117  LOAD C,A
 011005 122  LOAD D,D
 011006 040 000  JUMP. NE,L_1208
    L_1208:
 011010 346 177  AND A,#H'7F
 011012 347 072  .W ?AFOCA
 011014 030 253  JUMP. L_11B9
 011016 327 000  .W ?CREBL
 011020 070 247  JUMP. CS,L_11B9
 011022 315 003 036 CALL L_1E03
 011025 001 000 003 LOAD BC,#H'0300
 011030 147  LOAD H,A
 011031 327 010  .W ?WRBLK
 011033 174  LOAD A,H
 011034 107  LOAD B,A
 011035 041 021 052 LOAD HL,#H'2A11
 011040 315 320 033 CALL L_1BD0
 011043 021 015 000 LOAD DE,#H'000D
 011046 031  ADD HL,DE
 011047 126  LOAD D,(HL)
 011050 053  DEC HL
 011051 136  LOAD E,(HL)
 011052 053  DEC HL
 011053 162  LOAD (HL),D
 011054 053  DEC HL
 011055 163  LOAD (HL),E
 011056 170  LOAD A,B
 011057 001 000 000 LOAD BC,#H'0000
 011062 120  LOAD D,B
 011063 131  LOAD E,C
 011064 327 004  .W ?CLOSE
 011066 030 201  JUMP. L_11B9
 011070 041 271 021 LOAD HL,#L_11B9
 011073 345  PUSH HL
 011074 315 324 036 CALL L_1ED4
 011077 325  PUSH DE
 011100 315 342 032 CALL DO_TSTDRI
 011103 341  POP HL
 011104 330  RET CS
 011105 347 056  .W ?COMPH
 011107 050 006  JUMP. EQ,L_124F
 011111 032  LOAD A,(DE)
 011112 315 276 034 CALL L_1CBE
 011115 070 004  JUMP. CS,L_1253
    L_124F:
 11/05/26 07:21:41  SAMOS.SR                                                     01-08



 011117 076 013  LOAD A,#13
 011121 067  SETC
 011122 311  RET

    L_1253:
 011123 072 210 053 LOAD A,H'2B88
 011126 062 342 053 LOAD H'2BE2,A
 011131 041 354 053 LOAD HL,#H'2BEC
 011134 021 343 053 LOAD DE,#H'2BE3
 011137 001 011 000 LOAD BC,#H'0009
 011142 355 260  LDIR
 011144 052 204 053 LOAD HL,H'2B84
 011147 042 336 053 LOAD H'2BDE,HL
 011152 052 206 053 LOAD HL,H'2B86
 011155 042 340 053 LOAD H'2BE0,HL
 011160 267  OR A,A
 011161 311  RET

    L_1272:
 011162 041 271 021 LOAD HL,#L_11B9
 011165 345  PUSH HL
 011166 315 016 034 CALL L_1C0E
 011171 040 011  JUMP. NE,L_1284
 011173 023  INC DE
 011174 016 011  LOAD C,#11
 011176 315 025 034 CALL L_1C15
 011201 330  RET CS
 011202 257  XOR A,A
 011203 351  JUMP (HL)
    L_1284:
 011204 257  XOR A,A
 011205 305  PUSH BC
 011206 315 206 034 CALL L_1C86
 011211 301  POP BC
 011212 076 024  LOAD A,#24
 011214 330  RET CS
 011215 327 000  .W ?CREBL
 011217 330  RET CS
 011220 313  .B H'CB;SET 5,A (Zilog)  pas d'équivalent direct 1re gen
 011221 357  .B H'EF
 011222 167  LOAD (HL),A
 011223 006 003  LOAD B,#3
    L_1295:
 011225 043  INC HL
 011226 066 000  LOAD (HL),#0
 011230 020 373  DECJ,NE B,L_1295
 011232 311  RET

    L_129B:
 011233 041 271 021 LOAD HL,#L_11B9
 011236 345  PUSH HL
 011237 315 016 034 CALL L_1C0E
 011242 040 011  JUMP. NE,L_12AD
 011244 023  INC DE
 011245 016 022  LOAD C,#22
 011247 315 025 034 CALL L_1C15
 011252 330  RET CS
 011253 257  XOR A,A
 011254 351  JUMP (HL)
    L_12AD:
 011255 257  XOR A,A
 11/05/26 07:21:41  SAMOS.SR                                                     01-09



 011256 315 206 034 CALL L_1C86
 011261 076 024  LOAD A,#24
 011263 330  RET CS
 011264 327 003  .W ?OPEBL
 011266 330  RET CS
 011267 313  .B H'CB;SET 5,A (Zilog)  pas d'équivalent direct 1re gen
 011270 357  .B H'EF
 011271 167  LOAD (HL),A
 011272 043  INC HL
 011273 006 001  LOAD B,#1
 011275 160  LOAD (HL),B
 011276 043  INC HL
 011277 160  LOAD (HL),B
 011300 311  RET

    L_12C1:
 011301 076 014  LOAD A,#14
 011303 301  POP BC
 011304 321  POP DE
 011305 311  RET

 011306 315 016 034 CALL L_1C0E
 011311 050 247  JUMP. EQ,L_1272
 011313 041 271 021 LOAD HL,#L_11B9
 011316 345  PUSH HL
 011317 315 023 036 CALL L_1E13
 011322 330  RET CS
 011323 140  LOAD H,B
 011324 151  LOAD L,C
 011325 042 305 053 LOAD H'2BC5,HL
 011330 174  LOAD A,H
 011331 265  OR A,L
 011332 040 111  JUMP. NE,L_1325
 011334 325  PUSH DE
    L_12DD:
 011335 032  LOAD A,(DE)
 011336 023  INC DE
 011337 315 276 034 CALL L_1CBE
 011342 060 371  JUMP. CC,L_12DD
 011344 376 133  COMP A,#H'5B
 011346 040 074  JUMP. NE,L_1324
 011350 305  PUSH BC
 011351 016 000  LOAD C,#0
 011353 041 000 000 LOAD HL,#H'0000
    L_12EE:
 011356 032  LOAD A,(DE)
 011357 023  INC DE
 011360 376 135  COMP A,#H'5D
 011362 050 027  JUMP. EQ,L_130B
 011364 326 060  SUB A,#60
 011366 070 311  JUMP. CS,L_12C1
 011370 376 012  COMP A,#12
 011372 077  .B H'3F;CCF (toggle CF) - mnémonique 1re gen ?
 011373 070 304  JUMP. CS,L_12C1
 011375 006 004  LOAD B,#4
    L_12FF:
 011377 313  .B H'CB;SLA L (Zilog)  pas de mnémonique 1re gen
 011400 045  .B H'25
 011401 313 024  RLC H
 011403 313 021  RLC C
 011405 020 370  DECJ,NE B,L_12FF
 11/05/26 07:21:41  SAMOS.SR                                                     01-10



 011407 265  OR A,L
 011410 157  LOAD L,A
 011411 030 343  JUMP. L_12EE
    L_130B:
 011413 347 125  .W ?BCDBI
 011415 076 017  LOAD A,#17
 011417 241  AND A,C
 011420 117  LOAD C,A
 011421 006 000  LOAD B,#0
 011423 021 020 047 LOAD DE,#H'2710
 011426 347 057  .W ?MUL
 011430 174  LOAD A,H
 011431 265  OR A,L
 011432 041 377 377 LOAD HL,#H'FFFF
 011435 040 001  JUMP. NE,L_1320
 011437 353  EX HL,DE
    L_1320:
 011440 301  POP BC
 011441 042 305 053 LOAD H'2BC5,HL
    L_1324:
 011444 321  POP DE
    L_1325:
 011445 315 116 036 CALL L_1E4E
 011450 330  RET CS
 011451 315 046 035 CALL L_1D26
 011454 076 011  LOAD A,#11
 011456 330  RET CS
 011457 315 364 034 CALL L_1CF4
    L_1332:
 011462 060 007  JUMP. CC,L_133B
 011464 267  OR A,A
 011465 076 025  LOAD A,#25
 011467 050 012  JUMP. EQ,L_1343
 011471 067  SETC
 011472 311  RET

    L_133B:
 011473 315 177 035 CALL L_1D7F
 011476 315 024 035 CALL L_1D14
 011501 030 357  JUMP. L_1332
    L_1343:
 011503 315 107 035 CALL L_1D47
 011506 315 177 035 CALL L_1D7F
 011511 355 133 305 053 LOAD DE,H'2BC5
 011515 052 202 053 LOAD HL,H'2B82
 011520 174  LOAD A,H
 011521 265  OR A,L
 011522 076 026  LOAD A,#26
 011524 067  SETC
 011525 310  RET EQ
 011526 347 056  .W ?COMPH
 011530 330  RET CS
 011531 173  LOAD A,E
 011532 262  OR A,D
 011533 040 005  JUMP. NE,L_1362
 011535 313  .B H'CB;SRL H (Zilog)  pas de mnémonique 1re gen
 011536 074  .B H'3C
 011537 313 035  RRC L
 011541 353  EX HL,DE
    L_1362:
 011542 052 200 053 LOAD HL,H'2B80
 11/05/26 07:21:41  SAMOS.SR                                                     01-11



 011545 315 153 035 CALL DO_ADBLK
 011550 330  RET CS
 011551 042 202 053 LOAD H'2B82,HL
 011554 041 021 052 LOAD HL,#H'2A11
 011557 315 115 034 CALL L_1C4D
 011562 330  RET CS
 011563 353  EX HL,DE
 011564 041 166 053 LOAD HL,#H'2B76
 011567 001 023 000 LOAD BC,#H'0013
 011572 355 260  LDIR
 011574 041 347 045 LOAD HL,#H'25E7
 011577 345  PUSH HL
 011600 355 133 211 053 LOAD DE,H'2B89
 011604 033  DEC DE
 011605 355 122  SUBC HL,DE
 011607 104  LOAD B,H
 011610 115  LOAD C,L
 011611 341  POP HL
 011612 021 377 045 LOAD DE,#H'25FF
 011615 050 002  JUMP. EQ,L_1391
 011617 355 270  LDDR
    L_1391:
 011621 355 133 211 053 LOAD DE,H'2B89
 011625 041 166 053 LOAD HL,#H'2B76
 011630 001 016 000 LOAD BC,#H'000E
 011633 355 260  LDIR
 011635 076 010  LOAD A,#10
 011637 022  LOAD (DE),A
 011640 023  INC DE
 011641 257  XOR A,A
 011642 006 011  LOAD B,#11
 011644 353  EX HL,DE
    L_13A5:
 011645 167  LOAD (HL),A
 011646 043  INC HL
 011647 020 374  DECJ,NE B,L_13A5
 011651 030 103  JUMP. L_13EE
 011653 315 016 034 CALL L_1C0E
 011656 312 233 022 JUMP EQ,L_129B
 011661 041 271 021 LOAD HL,#L_11B9
 011664 345  PUSH HL
 011665 315 342 032 CALL DO_TSTDRI
 011670 330  RET CS
 011671 315 116 036 CALL L_1E4E
 011674 330  RET CS
 011675 315 046 035 CALL L_1D26
 011700 076 012  LOAD A,#12
 011702 077  .B H'3F;CCF (toggle CF) - mnémonique 1re gen ?
 011703 330  RET CS
 011704 076 012  LOAD A,#12
 011706 315 153 034 CALL L_1C6B
 011711 330  RET CS
 011712 041 261 052 LOAD HL,#H'2AB1
 011715 315 115 034 CALL L_1C4D
 011720 330  RET CS
 011721 353  EX HL,DE
 011722 335 345  PUSH IX
 011724 341  POP HL
 011725 001 016 000 LOAD BC,#H'000E
 011730 355 260  LDIR
 011732 345  PUSH HL
 11/05/26 07:21:41  SAMOS.SR                                                     01-12



 011733 041 204 053 LOAD HL,#H'2B84
 011736 001 004 000 LOAD BC,#H'0004
 011741 355 260  LDIR
 011743 341  POP HL
 011744 072 210 053 LOAD A,H'2B88
 011747 022  LOAD (DE),A
 011750 023  INC DE
 011751 043  INC HL
 011752 064  INC (HL)
 011753 043  INC HL
 011754 176  LOAD A,(HL)
 011755 022  LOAD (DE),A
    L_13EE:
 011756 030 075  JUMP. L_142D
 011760 041 271 021 LOAD HL,#L_11B9
 011763 345  PUSH HL
 011764 365  PUSH AF
 011765 305  PUSH BC
 011766 006 031  LOAD B,#31
 011770 315 054 036 CALL L_1E2C
 011773 301  POP BC
 011774 321  POP DE
 011775 330  RET CS
 011776 335 162 025 LOAD (IX)+25,D
 012001 335 160 026 LOAD (IX)+26,B
 012004 335 161 027 LOAD (IX)+27,C
 012007 030 044  JUMP. L_142D
 012011 041 271 021 LOAD HL,#L_11B9
 012014 345  PUSH HL
 012015 006 030  LOAD B,#30
 012017 315 054 036 CALL L_1E2C
 012022 330  RET CS
 012023 335  .B H'DD;RES 2,(IX+14) (Zilog)  pas d'équivalent direct 1re gen
 012024 313  .B H'CB
 012025 016  .B H'0E
 012026 226  .B H'96
 012027 267  OR A,A
 012030 050 023  JUMP. EQ,L_142D
 012032 335  .B H'DD;SET 2,(IX+14) (Zilog)  pas d'équivalent direct 1re gen
 012033 313  .B H'CB
 012034 016  .B H'0E
 012035 326  .B H'D6
 012036 030 015  JUMP. L_142D
 012040 041 271 021 LOAD HL,#L_11B9
 012043 345  PUSH HL
 012044 006 034  LOAD B,#34
 012046 315 054 036 CALL L_1E2C
 012051 330  RET CS
 012052 335 167 016 LOAD (IX)+16,A
    L_142D:
 012055 315 173 032 CALL L_1A7B
 012060 330  RET CS
 012061 072 233 053 LOAD A,H'2B9B
 012064 311  RET

 012065 041 271 021 LOAD HL,#L_11B9
 012070 345  PUSH HL
 012071 315 023 036 CALL L_1E13
 012074 330  RET CS
 012075 315 355 035 CALL L_1DED
 012100 315 161 032 CALL L_1A71
 11/05/26 07:21:41  SAMOS.SR                                                     01-13



 012103 330  RET CS
    L_1444:
 012104 315 213 032 CALL L_1A8B
 012107 060 344  JUMP. CC,L_142D
 012111 257  XOR A,A
 012112 167  LOAD (HL),A
 012113 053  DEC HL
 012114 313  .B H'CB;RES 3,(HL) (Zilog)  pas d'équivalent direct 1re gen
 012115 236  .B H'9E
 012116 030 364  JUMP. L_1444
 012120 041 271 021 LOAD HL,#L_11B9
 012123 345  PUSH HL
 012124 315 023 036 CALL L_1E13
 012127 070 111  JUMP. CS,L_14A2
 012131 041 166 053 LOAD HL,#H'2B76
 012134 305  PUSH BC
 012135 315 242 032 CALL L_1AA2
 012140 321  POP DE
 012141 070 077  JUMP. CS,L_14A2
 012143 315 324 036 CALL L_1ED4
 012146 041 154 053 LOAD HL,#H'2B6C
    L_1469:
 012151 315 250 033 CALL L_1BA8
 012154 060 373  JUMP. CC,L_1469
 012156 315 242 032 CALL L_1AA2
 012161 070 053  JUMP. CS,L_149E
 012163 315 161 032 CALL L_1A71
 012166 070 052  JUMP. CS,L_14A2
 012170 021 154 053 LOAD DE,#H'2B6C
 012173 315 046 035 CALL L_1D26
 012176 076 011  LOAD A,#11
 012200 070 034  JUMP. CS,L_149E
 012202 021 166 053 LOAD DE,#H'2B76
 012205 315 046 035 CALL L_1D26
 012210 076 012  LOAD A,#12
 012212 060 026  JUMP. CC,L_14A2
 012214 076 031  LOAD A,#31
 012216 315 153 034 CALL L_1C6B
 012221 070 017  JUMP. CS,L_14A2
 012223 353  EX HL,DE
 012224 041 154 053 LOAD HL,#H'2B6C
 012227 001 012 000 LOAD BC,#H'000A
 012232 355 260  LDIR
    L_149C:
 012234 030 217  JUMP. L_142D
    L_149E:
 012236 006 000  LOAD B,#0
 012240 030 001  JUMP. L_14A3
    L_14A2:
 012242 107  LOAD B,A
    L_14A3:
 012243 270  COMP A,B
 012244 067  SETC
 012245 311  RET

 012246 041 271 021 LOAD HL,#L_11B9
 012251 345  PUSH HL
 012252 006 031  LOAD B,#31
 012254 315 054 036 CALL L_1E2C
 012257 330  RET CS
 012260 345  PUSH HL
 11/05/26 07:21:41  SAMOS.SR                                                     01-14



 012261 001 030 000 LOAD BC,#H'0018
 012264 011  ADD HL,BC
 012265 345  PUSH HL
 012266 345  PUSH HL
 012267 301  POP BC
 012270 041 000 046 LOAD HL,#H'2600
 012273 355 102  SUBC HL,BC
 012275 345  PUSH HL
 012276 301  POP BC
 012277 341  POP HL
 012300 321  POP DE
 012301 050 002  JUMP. EQ,L_14C5
 012303 355 260  LDIR
    L_14C5:
 012305 041 377 045 LOAD HL,#H'25FF
 012310 006 030  LOAD B,#30
 012312 257  XOR A,A
    L_14CB:
 012313 167  LOAD (HL),A
 012314 053  DEC HL
 012315 020 374  DECJ,NE B,L_14CB
 012317 030 313  JUMP. L_149C
 012321 041 271 021 LOAD HL,#L_11B9
 012324 345  PUSH HL
    L_14D5:
 012325 267  OR A,A
 012326 362 347 024 JUMP PL,L_14E7
 012331 315 344 034 CALL L_1CE4
 012334 330  RET CS
 012335 313  .B H'CB;RES 4,(HL) (Zilog)  pas d'équivalent direct 1re gen
 012336 246  .B H'A6
 012337 313  .B H'CB;RES 3,(HL) (Zilog)  pas d'équivalent direct 1re gen
 012340 236  .B H'9E
 012341 315 347 035 CALL L_1DE7
 012344 076 377  LOAD A,#H'FF
 012346 351  JUMP (HL)
    L_14E7:
 012347 062 233 053 LOAD H'2B9B,A
 012352 313  .B H'CB;RES 5,A (Zilog)  pas d'équivalent direct 1re gen
 012353 257  .B H'AF
 012354 355 103 312 053 LOAD H'2BCA,BC
 012360 355 123 314 053 LOAD H'2BCC,DE
 012364 041 021 052 LOAD HL,#H'2A11
 012367 365  PUSH AF
 012370 315 320 033 CALL L_1BD0
 012373 060 043  JUMP. CC,L_1520
 012375 361  POP AF
 012376 041 261 052 LOAD HL,#H'2AB1
 012401 315 320 033 CALL L_1BD0
 012404 330  RET CS
 012405 315 221 025 CALL L_1591
 012410 330  RET CS
 012411 021 017 000 LOAD DE,#H'000F
 012414 031  ADD HL,DE
 012415 065  DEC (HL)
 012416 257  XOR A,A
 012417 335 167 000 LOAD (IX),A
 012422 072 233 053 LOAD A,H'2B9B
 012425 313  .B H'CB;BIT 5,A (Zilog)  pas d'équivalent direct 1re gen
 012426 157  .B H'6F
 012427 050 165  JUMP. EQ,L_158E
 11/05/26 07:21:41  SAMOS.SR                                                     01-15



 012431 315 206 034 CALL L_1C86
 012434 257  XOR A,A
 012435 167  LOAD (HL),A
 012436 030 156  JUMP. L_158E
    L_1520:
 012440 361  POP AF
 012441 345  PUSH HL
 012442 347 146  .W ?GDAY
 012444 062 316 053 LOAD H'2BCE,A
 012447 170  LOAD A,B
 012450 101  LOAD B,C
 012451 117  LOAD C,A
 012452 355 103 317 053 LOAD H'2BCF,BC
 012456 341  POP HL
 012457 072 233 053 LOAD A,H'2B9B
 012462 313  .B H'CB;BIT 5,A (Zilog)  pas d'équivalent direct 1re gen
 012463 157  .B H'6F
 012464 050 060  JUMP. EQ,L_1566
 012466 345  PUSH HL
 012467 345  PUSH HL
 012470 335 341  POP IX
 012472 335 066 023 000 LOAD (IX)+23,#0
 012476 315 325 034 CALL L_1CD5
 012501 321  POP DE
 012502 330  RET CS
 012503 175  LOAD A,L
 012504 264  OR A,H
 012505 353  EX HL,DE
 012506 050 032  JUMP. EQ,L_1562
 012510 170  LOAD A,B
 012511 006 000  LOAD B,#0
 012513 057  CPL A
 012514 074  INC A
 012515 117  LOAD C,A
 012516 003  INC BC
 012517 335 345  PUSH IX
 012521 321  POP DE
 012522 032  LOAD A,(DE)
 012523 313  .B H'CB;RES 5,A (Zilog)  pas d'équivalent direct 1re gen
 012524 257  .B H'AF
 012525 023  INC DE
 012526 023  INC DE
 012527 023  INC DE
 012530 023  INC DE
 012531 327 010  .W ?WRBLK
 012533 335 160 002 LOAD (IX)+2,B
 012536 335 160 003 LOAD (IX)+3,B
 012541 330  RET CS
    L_1562:
 012542 257  XOR A,A
 012543 335 167 000 LOAD (IX),A
    L_1566:
 012546 315 221 025 CALL L_1591
 012551 330  RET CS
 012552 335 176 023 LOAD A,(IX)+23
 012555 062 311 053 LOAD H'2BC9,A
 012560 021 014 000 LOAD DE,#H'000C
 012563 031  ADD HL,DE
 012564 257  XOR A,A
 012565 335 167 000 LOAD (IX),A
 012570 335 106 012 LOAD B,(IX)+12
 11/05/26 07:21:41  SAMOS.SR                                                     01-16



 012573 160  LOAD (HL),B
 012574 043  INC HL
 012575 335 106 013 LOAD B,(IX)+13
 012600 160  LOAD (HL),B
 012601 043  INC HL
 012602 167  LOAD (HL),A
 012603 043  INC HL
 012604 043  INC HL
 012605 353  EX HL,DE
 012606 041 311 053 LOAD HL,#H'2BC9
 012611 001 010 000 LOAD BC,#H'0008
 012614 355 260  LDIR
    L_158E:
 012616 303 055 024 JUMP L_142D
    L_1591:
 012621 315 345 036 CALL L_1EE5
 012624 315 161 032 CALL L_1A71
 012627 330  RET CS
 012630 335 345  PUSH IX
 012632 321  POP DE
 012633 315 046 035 CALL L_1D26
 012636 076 012  LOAD A,#12
 012640 077  .B H'3F;CCF (toggle CF) - mnémonique 1re gen ?
 012641 311  RET

 012642 315 262 025 CALL L_15B2
 012645 365  PUSH AF
 012646 072 230 053 LOAD A,H'2B98
 012651 267  OR A,A
 012652 050 003  JUMP. EQ,L_15AF
 012654 361  POP AF
 012655 030 141  JUMP. L_1610
    L_15AF:
 012657 361  POP AF
 012660 030 112  JUMP. L_15FC
    L_15B2:
 012662 355 103 332 053 LOAD H'2BDA,BC
 012666 104  LOAD B,H
 012667 115  LOAD C,L
 012670 365  PUSH AF
 012671 076 377  LOAD A,#H'FF
 012673 070 001  JUMP. CS,L_15BE
 012675 257  XOR A,A
    L_15BE:
 012676 062 230 053 LOAD H'2B98,A
 012701 361  POP AF
 012702 041 261 052 LOAD HL,#H'2AB1
 012705 315 320 033 CALL L_1BD0
 012710 330  RET CS
 012711 315 345 036 CALL L_1EE5
 012714 072 230 053 LOAD A,H'2B98
 012717 267  OR A,A
 012720 050 004  JUMP. EQ,L_15D6
 012722 315 027 036 CALL L_1E17
 012725 330  RET CS
    L_15D6:
 012726 140  LOAD H,B
 012727 151  LOAD L,C
 012730 315 143 036 CALL L_1E63
 012733 076 017  LOAD A,#17
 012735 330  RET CS
 11/05/26 07:21:41  SAMOS.SR                                                     01-17



 012736 325  PUSH DE
 012737 345  PUSH HL
 012740 355 113 332 053 LOAD BC,H'2BDA
 012744 315 207 036 CALL L_1E87
 012747 321  POP DE
 012750 353  EX HL,DE
 012751 315 271 036 CALL L_1EB9
 012754 321  POP DE
 012755 076 377  LOAD A,#H'FF
 012757 030 115  JUMP. L_163E
 012761 267  OR A,A
 012762 362 371 025 JUMP PL,L_15F9
 012765 327 025  .W ?RDBYT
 012767 030 003  JUMP. L_15FC
    L_15F9:
 012771 315 044 026 CALL L_1624
    L_15FC:
 012774 060 037  JUMP. CC,L_161D
 012776 376 006  COMP A,#6
 013000 067  SETC
 013001 040 036  JUMP. NE,L_1621
 013003 030 030  JUMP. L_161D
 013005 267  OR A,A
 013006 362 015 026 JUMP PL,L_160D
 013011 327 026  .W ?WRBYT
 013013 030 020  JUMP. L_161D
    L_160D:
 013015 315 053 026 CALL L_162B
    L_1610:
 013020 060 013  JUMP. CC,L_161D
 013022 365  PUSH AF
 013023 376 006  COMP A,#6
 013025 040 011  JUMP. NE,L_1620
 013027 361  POP AF
 013030 076 007  LOAD A,#7
 013032 040 001  JUMP. NE,L_161D
 013034 267  OR A,A
    L_161D:
 013035 303 315 021 JUMP L_11CD
    L_1620:
 013040 361  POP AF
    L_1621:
 013041 303 271 021 JUMP L_11B9
    L_1624:
 013044 365  PUSH AF
 013045 257  XOR A,A
 013046 041 261 052 LOAD HL,#H'2AB1
 013051 030 006  JUMP. L_1631
    L_162B:
 013053 365  PUSH AF
 013054 076 377  LOAD A,#H'FF
 013056 041 021 052 LOAD HL,#H'2A11
    L_1631:
 013061 062 230 053 LOAD H'2B98,A
 013064 361  POP AF
 013065 315 167 036 CALL L_1E77
 013070 330  RET CS
    L_1639:
 013071 315 143 036 CALL L_1E63
 013074 076 000  LOAD A,#0
    L_163E:
 11/05/26 07:21:41  SAMOS.SR                                                     01-18



 013076 365  PUSH AF
 013077 345  PUSH HL
 013100 305  PUSH BC
 013101 315 155 036 CALL L_1E6D
 013104 321  POP DE
 013105 341  POP HL
 013106 070 043  JUMP. CS,L_166B
 013110 361  POP AF
 013111 365  PUSH AF
 013112 267  OR A,A
 013113 314 262 036 CALL EQ,L_1EB2
 013116 355 122  SUBC HL,DE
 013120 105  LOAD B,L
 013121 114  LOAD C,H
 013122 361  POP AF
 013123 320  RET CC
 013124 365  PUSH AF
 013125 072 230 053 LOAD A,H'2B98
 013130 267  OR A,A
 013131 040 014  JUMP. NE,L_1667
 013133 170  LOAD A,B
 013134 267  OR A,A
 013135 050 010  JUMP. EQ,L_1667
 013137 335 176 023 LOAD A,(IX)+23
 013142 267  OR A,A
 013143 050 002  JUMP. EQ,L_1667
 013145 005  DEC B
 013146 117  LOAD C,A
    L_1667:
 013147 361  POP AF
 013150 076 006  LOAD A,#6
 013152 311  RET

    L_166B:
 013153 341  POP HL
 013154 311  RET

 013155 315 310 036 CALL L_1EC8
    L_1670:
 013160 315 227 034 CALL L_1C97
 013163 060 036  JUMP. CC,L_1693
 013165 345  PUSH HL
 013166 315 230 026 CALL L_1698
 013171 341  POP HL
 013172 070 027  JUMP. CS,L_1693
 013174 043  INC HL
 013175 023  INC DE
 013176 030 360  JUMP. L_1670
 013200 315 310 036 CALL L_1EC8
    L_1683:
 013203 315 227 034 CALL L_1C97
 013206 060 013  JUMP. CC,L_1693
 013210 345  PUSH HL
 013211 315 251 026 CALL L_16A9
 013214 341  POP HL
 013215 070 004  JUMP. CS,L_1693
 013217 043  INC HL
 013220 023  INC DE
 013221 030 360  JUMP. L_1683
    L_1693:
 013223 104  LOAD B,H
 11/05/26 07:21:41  SAMOS.SR                                                     01-19



 013224 115  LOAD C,L
 013225 303 315 021 JUMP L_11CD
    L_1698:
 013230 267  OR A,A
 013231 362 244 026 JUMP PL,L_16A4
 013234 315 344 034 CALL L_1CE4
 013237 330  RET CS
 013240 016 002  LOAD C,#2
 013242 030 017  JUMP. L_16B3
    L_16A4:
 013244 365  PUSH AF
 013245 076 377  LOAD A,#H'FF
 013247 030 025  JUMP. L_16BE
    L_16A9:
 013251 267  OR A,A
 013252 362 274 026 JUMP PL,L_16BC
 013255 315 344 034 CALL L_1CE4
 013260 330  RET CS
 013261 016 001  LOAD C,#1
    L_16B3:
 013263 241  AND A,C
 013264 302 177 034 JUMP NE,L_1C7F
 013267 315 347 035 CALL L_1DE7
 013272 067  SETC
 013273 351  JUMP (HL)
    L_16BC:
 013274 365  PUSH AF
 013275 257  XOR A,A
    L_16BE:
 013276 062 231 053 LOAD H'2B99,A
 013301 361  POP AF
 013302 315 325 034 CALL L_1CD5
 013305 330  RET CS
 013306 175  LOAD A,L
 013307 264  OR A,H
 013310 040 011  JUMP. NE,L_16D3
 013312 335 345  PUSH IX
 013314 341  POP HL
 013315 043  INC HL
 013316 043  INC HL
 013317 043  INC HL
 013320 043  INC HL
 013321 030 063  JUMP. L_1706
    L_16D3:
 013323 043  INC HL
 013324 020 060  DECJ,NE B,L_1706
 013326 335 345  PUSH IX
 013330 341  POP HL
 013331 176  LOAD A,(HL)
 013332 313  .B H'CB;RES 5,A (Zilog)  pas d'équivalent direct 1re gen
 013333 257  .B H'AF
 013334 043  INC HL
 013335 043  INC HL
 013336 043  INC HL
 013337 043  INC HL
 013340 001 000 001 LOAD BC,#H'0100
 013343 353  EX HL,DE
 013344 365  PUSH AF
 013345 072 231 053 LOAD A,H'2B99
 013350 267  OR A,A
 013351 050 005  JUMP. EQ,L_16F0
 11/05/26 07:21:41  SAMOS.SR                                                     01-20



 013353 361  POP AF
 013354 327 006  .W ?RDBLK
 013356 030 003  JUMP. L_16F3
    L_16F0:
 013360 361  POP AF
 013361 327 010  .W ?WRBLK
    L_16F3:
 013363 353  EX HL,DE
 013364 060 017  JUMP. CC,L_1705
 013366 376 007  COMP A,#7
 013370 067  SETC
 013371 050 041  JUMP. EQ,L_171C
 013373 376 006  COMP A,#6
 013375 067  SETC
 013376 300  RET NE
 013377 170  LOAD A,B
 013400 261  OR A,C
 013401 076 006  LOAD A,#6
 013403 067  SETC
 013404 310  RET EQ
    L_1705:
 013405 101  LOAD B,C
    L_1706:
 013406 072 231 053 LOAD A,H'2B99
 013411 267  OR A,A
 013412 040 001  JUMP. NE,L_170D
 013414 353  EX HL,DE
    L_170D:
 013415 176  LOAD A,(HL)
 013416 022  LOAD (DE),A
 013417 335 160 001 LOAD (IX)+1,B
 013422 040 001  JUMP. NE,L_1715
 013424 353  EX HL,DE
    L_1715:
 013425 335 165 002 LOAD (IX)+2,L
 013430 335 164 003 LOAD (IX)+3,H
 013433 311  RET

    L_171C:
 013434 041 000 000 LOAD HL,#H'0000
 013437 030 364  JUMP. L_1715
 013441 313  .B H'CB;SET 0,L (Zilog)  pas d'équivalent direct 1re gen
 013442 305  .B H'C5
 013443 030 002  JUMP. L_1727
 013445 313  .B H'CB;RES 0,L (Zilog)  pas d'équivalent direct 1re gen
 013446 205  .B H'85
    L_1727:
 013447 147  LOAD H,A
 013450 001 000 000 LOAD BC,#H'0000
    L_172B:
 013453 305  PUSH BC
 013454 001 001 000 LOAD BC,#H'0001
 013457 174  LOAD A,H
 013460 313  .B H'CB;BIT 0,L (Zilog)  pas d'équivalent direct 1re gen
 013461 105  .B H'45
 013462 050 004  JUMP. EQ,L_1738
 013464 327 025  .W ?RDBYT
 013466 030 002  JUMP. L_173A
    L_1738:
 013470 327 026  .W ?WRBYT
    L_173A:
 11/05/26 07:21:41  SAMOS.SR                                                     01-21



 013472 301  POP BC
 013473 070 025  JUMP. CS,L_1752
 013475 003  INC BC
 013476 032  LOAD A,(DE)
 013477 023  INC DE
 013500 267  OR A,A
 013501 050 017  JUMP. EQ,L_1752
 013503 376 015  COMP A,#15
 013505 050 013  JUMP. EQ,L_1752
 013507 376 014  COMP A,#14
 013511 050 007  JUMP. EQ,L_1752
 013513 313  .B H'CB;BIT 0,B (Zilog)  pas d'équivalent direct 1re gen
 013514 100  .B H'40
 013515 050 334  JUMP. EQ,L_172B
 013517 076 005  LOAD A,#5
 013521 067  SETC
    L_1752:
 013522 303 315 021 JUMP L_11CD
 013525 041 271 021 LOAD HL,#L_11B9
 013530 345  PUSH HL
 013531 315 342 032 CALL DO_TSTDRI
 013534 330  RET CS
 013535 305  PUSH BC
 013536 315 264 035 CALL L_1DB4
 013541 321  POP DE
 013542 330  RET CS
 013543 315 107 035 CALL L_1D47
 013546 001 003 000 LOAD BC,#H'0003
 013551 355 102  SUBC HL,BC
 013553 042 305 053 LOAD H'2BC5,HL
 013556 041 000 043 LOAD HL,#H'2300
    L_1771:
 013561 176  LOAD A,(HL)
 013562 267  OR A,A
 013563 050 124  JUMP. EQ,L_17C9
 013565 345  PUSH HL
 013566 345  PUSH HL
 013567 001 012 000 LOAD BC,#H'000A
 013572 355 260  LDIR
 013574 341  POP HL
 013575 076 017  LOAD A,#17
 013577 315 153 034 CALL L_1C6B
 013602 365  PUSH AF
 013603 313  .B H'CB;BIT 3,A (Zilog)  pas d'équivalent direct 1re gen
 013604 137  .B H'5F
 013605 076 103  LOAD A,#H'43
 013607 040 005  JUMP. NE,L_178E
 013611 335 176 017 LOAD A,(IX)+17
 013614 306 060  ADD A,#60
    L_178E:
 013616 022  LOAD (DE),A
 013617 023  INC DE
 013620 361  POP AF
 013621 022  LOAD (DE),A
 013622 023  INC DE
 013623 355 123 303 053 LOAD H'2BC3,DE
 013627 315 225 036 CALL L_1E95
 013632 345  PUSH HL
 013633 325  PUSH DE
 013634 267  OR A,A
 013635 355 122  SUBC HL,DE
 11/05/26 07:21:41  SAMOS.SR                                                     01-22



 013637 353  EX HL,DE
 013640 052 305 053 LOAD HL,H'2BC5
 013643 267  OR A,A
 013644 355 122  SUBC HL,DE
 013646 042 305 053 LOAD H'2BC5,HL
 013651 353  EX HL,DE
 013652 355 133 303 053 LOAD DE,H'2BC3
 013656 315 357 036 CALL L_1EEF
 013661 335 176 020 LOAD A,(IX)+20
 013664 022  LOAD (DE),A
 013665 023  INC DE
 013666 341  POP HL
 013667 315 357 036 CALL L_1EEF
 013672 341  POP HL
 013673 315 357 036 CALL L_1EEF
 013676 341  POP HL
 013677 001 025 000 LOAD BC,#H'0015
 013702 011  ADD HL,BC
 013703 016 003  LOAD C,#3
 013705 355 260  LDIR
 013707 030 250  JUMP. L_1771
    L_17C9:
 013711 022  LOAD (DE),A
 013712 023  INC DE
 013713 052 305 053 LOAD HL,H'2BC5
 013716 315 357 036 CALL L_1EEF
 013721 052 202 053 LOAD HL,H'2B82
 013724 303 357 036 JUMP L_1EEF
 013727 041 343 053 LOAD HL,#H'2BE3
 013732 001 022 000 LOAD BC,#H'0012
 013735 355 260  LDIR
 013737 303 271 021 JUMP L_11B9
 013742 041 271 021 LOAD HL,#L_11B9
 013745 345  PUSH HL
 013746 355 103 307 053 LOAD H'2BC7,BC
 013752 117  LOAD C,A
 013753 006 000  LOAD B,#0
 013755 315 023 036 CALL L_1E13
 013760 330  RET CS
 013761 355 103 305 053 LOAD H'2BC5,BC
 013765 170  LOAD A,B
 013766 261  OR A,C
 013767 040 014  JUMP. NE,L_1805
 013771 041 003 000 LOAD HL,#H'0003
 013774 042 305 053 LOAD H'2BC5,HL
 013777 041 000 043 LOAD HL,#H'2300
 014002 042 307 053 LOAD H'2BC7,HL
    L_1805:
 014005 315 161 032 CALL L_1A71
 014010 330  RET CS
 014011 315 213 032 CALL L_1A8B
 014014 070 006  JUMP. CS,L_1814
 014016 315 364 034 CALL L_1CF4
 014021 060 002  JUMP. CC,L_1815
 014023 267  OR A,A
    L_1814:
 014024 311  RET

    L_1815:
 014025 267  OR A,A
 014026 355 122  SUBC HL,DE
 11/05/26 07:21:41  SAMOS.SR                                                     01-23



 014030 315 250 035 CALL L_1DA8
 014033 315 024 035 CALL L_1D14
 014036 325  PUSH DE
 014037 335 345  PUSH IX
 014041 335 052 211 053 LOAD IX,H'2B89
 014045 321  POP DE
    L_1826:
 014046 325  PUSH DE
 014047 001 024 000 LOAD BC,#H'0014
 014052 305  PUSH BC
 014053 006 002  LOAD B,#2
    L_182D:
 014055 355 133 202 053 LOAD DE,H'2B82
 014061 315 253 036 CALL L_1EAB
 014064 267  OR A,A
 014065 355 122  SUBC HL,DE
 014067 315 262 036 CALL L_1EB2
 014072 335 043  INC IX
 014074 335 043  INC IX
 014076 020 355  DECJ,NE B,L_182D
 014100 301  POP BC
 014101 335 011  ADD IX,BC
 014103 335 345  PUSH IX
 014105 341  POP HL
 014106 321  POP DE
 014107 347 056  .W ?COMPH
 014111 070 333  JUMP. CS,L_1826
 014113 315 173 032 CALL L_1A7B
 014116 321  POP DE
 014117 330  RET CS
 014120 335 041 353 053 LOAD IX,#H'2BEB
 014124 052 200 053 LOAD HL,H'2B80
 014127 315 262 036 CALL L_1EB2
 014132 335 041 357 053 LOAD IX,#H'2BEF
 014136 315 244 036 CALL L_1EA4
 014141 325  PUSH DE
 014142 355 133 202 053 LOAD DE,H'2B82
 014146 325  PUSH DE
 014147 031  ADD HL,DE
 014150 315 262 036 CALL L_1EB2
 014153 321  POP DE
 014154 341  POP HL
 014155 267  OR A,A
 014156 355 122  SUBC HL,DE
 014160 353  EX HL,DE
 014161 335 041 353 053 LOAD IX,#H'2BEB
 014165 315 244 036 CALL L_1EA4
    L_1878:
 014170 335 041 357 053 LOAD IX,#H'2BEF
 014174 355 133 307 053 LOAD DE,H'2BC7
 014200 052 305 053 LOAD HL,H'2BC5
 014203 257  XOR A,A
 014204 062 230 053 LOAD H'2B98,A
 014207 315 071 026 CALL L_1639
 014212 060 006  JUMP. CC,L_1892
 014214 376 006  COMP A,#6
 014216 050 002  JUMP. EQ,L_1892
 014220 067  SETC
 014221 311  RET

    L_1892:
 11/05/26 07:21:41  SAMOS.SR                                                     01-24



 014222 335 041 353 053 LOAD IX,#H'2BEB
 014226 355 133 307 053 LOAD DE,H'2BC7
 014232 052 305 053 LOAD HL,H'2BC5
 014235 076 377  LOAD A,#H'FF
 014237 062 230 053 LOAD H'2B98,A
 014242 315 071 026 CALL L_1639
 014245 060 321  JUMP. CC,L_1878
 014247 376 006  COMP A,#6
 014251 312 005 030 JUMP EQ,L_1805
 014254 067  SETC
 014255 311  RET

 014256 345  PUSH HL
 014257 041 315 021 LOAD HL,#L_11CD
 014262 343  EX (SP),HL
 014263 345  PUSH HL
 014264 315 207 036 CALL L_1E87
 014267 305  PUSH BC
 014270 315 114 031 CALL L_194C
 014273 301  POP BC
 014274 321  POP DE
 014275 070 061  JUMP. CS,L_18F0
 014277 050 005  JUMP. EQ,L_18C6
 014301 347 056  .W ?COMPH
 014303 067  SETC
 014304 040 052  JUMP. NE,L_18F0
    L_18C6:
 014306 325  PUSH DE
 014307 315 225 036 CALL L_1E95
 014312 325  PUSH DE
 014313 353  EX HL,DE
 014314 011  ADD HL,BC
 014315 077  .B H'3F;CCF (toggle CF) - mnémonique 1re gen ?
 014316 060 004  JUMP. CC,L_18D4
 014320 347 056  .W ?COMPH
 014322 070 001  JUMP. CS,L_18D5
    L_18D4:
 014324 353  EX HL,DE
    L_18D5:
 014325 301  POP BC
 014326 321  POP DE
 014327 365  PUSH AF
 014330 345  PUSH HL
 014331 305  PUSH BC
 014332 315 243 037 CALL DO_RODWIB
 014335 321  POP DE
 014336 341  POP HL
 014337 070 016  JUMP. CS,L_18EF
 014341 355 122  SUBC HL,DE
 014343 105  LOAD B,L
 014344 114  LOAD C,H
 014345 361  POP AF
 014346 330  RET CS
 014347 335 176 020 LOAD A,(IX)+20
 014352 267  OR A,A
 014353 310  RET EQ
 014354 005  DEC B
 014355 117  LOAD C,A
 014356 311  RET

    L_18EF:
 11/05/26 07:21:41  SAMOS.SR                                                     01-25



 014357 341  POP HL
    L_18F0:
 014360 001 000 000 LOAD BC,#H'0000
 014363 311  RET

 014364 061 050 105 LOAD SP,#H'4528
 014367 335 345  PUSH IX
 014371 325  PUSH DE
 014372 305  PUSH BC
 014373 315 040 031 CALL L_1920
 014376 301  POP BC
 014377 321  POP DE
 014400 335 341  POP IX
 014402 070 016  JUMP. CS,L_1912
 014404 345  PUSH HL
 014405 315 335 035 CALL L_1DDD
 014410 347 033  .W ?MEM
 014412 321  POP DE
 014413 371  LOAD SP,HL
 014414 052 307 053 LOAD HL,H'2BC7
 014417 353  EX HL,DE
 014420 030 007  JUMP. L_1919
    L_1912:
 014422 052 330 053 LOAD HL,H'2BD8
 014425 355 173 326 053 LOAD SP,H'2BD6
    L_1919:
 014431 345  PUSH HL
 014432 052 321 053 LOAD HL,H'2BD1
 014435 303 322 021 JUMP L_11D2
    L_1920:
 014440 315 114 031 CALL L_194C
 014443 330  RET CS
 014444 067  SETC
 014445 310  RET EQ
 014446 335 136 023 LOAD E,(IX)+23
 014451 335 126 024 LOAD D,(IX)+24
 014454 325  PUSH DE
 014455 353  EX HL,DE
 014456 001 377 377 LOAD BC,#H'FFFF
 014461 315 306 030 CALL L_18C6
 014464 070 012  JUMP. CS,L_1940
 014466 341  POP HL
 014467 053  DEC HL
 014470 174  LOAD A,H
 014471 265  OR A,L
 014472 043  INC HL
 014473 300  RET NE
 014474 076 034  LOAD A,#34
 014476 067  SETC
 014477 311  RET

    L_1940:
 014500 061 377 377 LOAD SP,#H'FFFF
 014503 076 001  LOAD A,#1
 014505 323 000  LOAD $0,A
 014507 076 035  LOAD A,#35
 014511 303 264 020 JUMP L_10B4
    L_194C:
 014514 315 342 032 CALL DO_TSTDRI
 014517 330  RET CS
 014520 315 116 036 CALL L_1E4E
 11/05/26 07:21:41  SAMOS.SR                                                     01-26



 014523 334 323 035 CALL CS,L_1DD3
 014526 070 005  JUMP. CS,L_195D
 014530 315 046 035 CALL L_1D26
 014533 070 044  JUMP. CS,L_1981
    L_195D:
 014535 076 040  LOAD A,#40
    L_195F:
 014537 062 210 053 LOAD H'2B88,A
 014542 315 124 035 CALL L_1D54
 014545 325  PUSH DE
 014546 315 161 032 CALL L_1A71
 014551 321  POP DE
 014552 334 323 035 CALL CS,L_1DD3
 014555 070 005  JUMP. CS,L_1974
 014557 315 046 035 CALL L_1D26
 014562 070 015  JUMP. CS,L_1981
    L_1974:
 014564 072 210 053 LOAD A,H'2B88
 014567 046 100  LOAD H,#H'40
 014571 244  AND A,H
 014572 174  LOAD A,H
 014573 050 342  JUMP. EQ,L_195F
 014575 076 012  LOAD A,#12
 014577 067  SETC
 014600 311  RET

    L_1981:
 014601 076 012  LOAD A,#12
 014603 315 153 034 CALL L_1C6B
 014606 330  RET CS
 014607 335 156 021 LOAD L,(IX)+21
 014612 335 146 022 LOAD H,(IX)+22
 014615 174  LOAD A,H
 014616 265  OR A,L
 014617 076 016  LOAD A,#16
 014621 311  RET

 014622 041 021 052 LOAD HL,#H'2A11
 014625 021 024 000 LOAD DE,#H'0014
 014630 001 101 020 LOAD BC,#H'1041
    L_199B:
 014633 176  LOAD A,(HL)
 014634 267  OR A,A
 014635 040 053  JUMP. NE,L_19CA
    L_199F:
 014637 031  ADD HL,DE
 014640 014  INC C
 014641 325  PUSH DE
 014642 021 261 052 LOAD DE,#H'2AB1
 014645 347 056  .W ?COMPH
 014647 040 002  JUMP. NE,L_19AB
 014651 016 001  LOAD C,#1
    L_19AB:
 014653 321  POP DE
 014654 020 355  DECJ,NE B,L_199B
    L_19AE:
 014656 041 121 053 LOAD HL,#H'2B51
 014661 006 011  LOAD B,#11
    L_19B3:
 014663 176  LOAD A,(HL)
 014664 313  .B H'CB;BIT 4,A (Zilog)  pas d'équivalent direct 1re gen
 11/05/26 07:21:41  SAMOS.SR                                                     01-27



 014665 147  .B H'67
 014666 040 015  JUMP. NE,L_19C5
 014670 313  .B H'CB;BIT 3,A (Zilog)  pas d'équivalent direct 1re gen
 014671 137  .B H'5F
 014672 040 011  JUMP. NE,L_19C5
 014674 043  INC HL
 014675 043  INC HL
 014676 043  INC HL
 014677 020 362  DECJ,NE B,L_19B3
 014701 267  OR A,A
 014702 303 271 021 JUMP L_11B9
    L_19C5:
 014705 315 325 024 CALL L_14D5
 014710 030 344  JUMP. L_19AE
    L_19CA:
 014712 325  PUSH DE
 014713 345  PUSH HL
 014714 313  .B H'CB;BIT 6,C (Zilog)  pas d'équivalent direct 1re gen
 014715 161  .B H'71
 014716 040 021  JUMP. NE,L_19E1
 014720 021 010 000 LOAD DE,#H'0008
 014723 031  ADD HL,DE
 014724 076 115  LOAD A,#H'4D
 014726 276  COMP A,(HL)
 014727 040 010  JUMP. NE,L_19E1
 014731 043  INC HL
 014732 076 103  LOAD A,#H'43
 014734 276  COMP A,(HL)
 014735 341  POP HL
 014736 050 030  JUMP. EQ,L_19F8
 014740 345  PUSH HL
    L_19E1:
 014741 305  PUSH BC
 014742 171  LOAD A,C
 014743 313  .B H'CB;SET 5,A (Zilog)  pas d'équivalent direct 1re gen
 014744 357  .B H'EF
 014745 315 206 034 CALL L_1C86
 014750 060 002  JUMP. CC,L_19EC
 014752 313  .B H'CB;RES 5,A (Zilog)  pas d'équivalent direct 1re gen
 014753 257  .B H'AF
    L_19EC:
 014754 001 000 000 LOAD BC,#H'0000
 014757 120  LOAD D,B
 014760 131  LOAD E,C
 014761 315 325 024 CALL L_14D5
 014764 301  POP BC
 014765 341  POP HL
 014766 066 000  LOAD (HL),#0
    L_19F8:
 014770 321  POP DE
 014771 030 244  JUMP. L_199F
 014773 041 271 021 LOAD HL,#L_11B9
 014776 345  PUSH HL
 014777 315 023 036 CALL L_1E13
 015002 330  RET CS
 015003 315 003 036 CALL L_1E03
 015006 315 107 035 CALL L_1D47
 015011 303 274 037 JUMP DO_RIBWOD
 015014 041 271 021 LOAD HL,#L_11B9
 015017 345  PUSH HL
 015020 315 342 032 CALL DO_TSTDRI
 11/05/26 07:21:41  SAMOS.SR                                                     01-28



 015023 330  RET CS
 015024 355 103 312 053 LOAD H'2BCA,BC
 015030 355 123 314 053 LOAD H'2BCC,DE
 015034 315 264 035 CALL L_1DB4
 015037 330  RET CS
 015040 355 133 202 053 LOAD DE,H'2B82
 015044 052 312 053 LOAD HL,H'2BCA
 015047 163  LOAD (HL),E
 015050 043  INC HL
 015051 162  LOAD (HL),D
 015052 043  INC HL
 015053 042 312 053 LOAD H'2BCA,HL
 015056 355 133 314 053 LOAD DE,H'2BCC
 015062 041 166 053 LOAD HL,#H'2B76
 015065 315 242 032 CALL L_1AA2
 015070 070 061  JUMP. CS,L_1A6B
 015072 021 166 053 LOAD DE,#H'2B76
 015075 315 046 035 CALL L_1D26
 015100 060 051  JUMP. CC,L_1A6B
 015102 076 037  LOAD A,#37
 015104 315 153 034 CALL L_1C6B
 015107 260  OR A,B
 015110 366 200  OR A,#H'80
 015112 052 312 053 LOAD HL,H'2BCA
 015115 167  LOAD (HL),A
 015116 043  INC HL
 015117 345  PUSH HL
 015120 315 225 036 CALL L_1E95
 015123 267  OR A,A
 015124 355 122  SUBC HL,DE
 015126 353  EX HL,DE
 015127 341  POP HL
 015130 163  LOAD (HL),E
 015131 043  INC HL
 015132 162  LOAD (HL),D
 015133 043  INC HL
 015134 124  LOAD D,H
 015135 135  LOAD E,L
 015136 335 345  PUSH IX
 015140 341  POP HL
 015141 001 020 000 LOAD BC,#H'0010
 015144 011  ADD HL,BC
 015145 001 010 000 LOAD BC,#H'0008
 015150 355 260  LDIR
 015152 311  RET

    L_1A6B:
 015153 052 312 053 LOAD HL,H'2BCA
 015156 257  XOR A,A
 015157 167  LOAD (HL),A
 015160 311  RET

    L_1A71:
 015161 315 201 032 CALL L_1A81
 015164 257  XOR A,A
 015165 062 232 053 LOAD H'2B9A,A
 015170 303 243 037 JUMP DO_RODWIB
    L_1A7B:
 015173 315 201 032 CALL L_1A81
 015176 303 274 037 JUMP DO_RIBWOD
    L_1A81:
 11/05/26 07:21:41  SAMOS.SR                                                     01-29



 015201 001 000 000 LOAD BC,#H'0000
 015204 041 003 000 LOAD HL,#H'0003
 015207 021 000 043 LOAD DE,#H'2300
 015212 311  RET

    L_1A8B:
 015213 041 016 043 LOAD HL,#H'230E
 015216 021 027 000 LOAD DE,#H'0017
 015221 001 023 040 LOAD BC,#L_2013
    L_1A94:
 015224 313  .B H'CB;BIT 3,(HL) (Zilog)  pas d'équivalent direct 1re gen
 015225 136  .B H'5E
 015226 043  INC HL
 015227 040 002  JUMP. NE,L_1A9B
 015231 176  LOAD A,(HL)
 015232 267  OR A,A
    L_1A9B:
 015233 171  LOAD A,C
 015234 067  SETC
 015235 300  RET NE
 015236 031  ADD HL,DE
 015237 020 363  DECJ,NE B,L_1A94
 015241 311  RET

    L_1AA2:
 015242 315 324 036 CALL L_1ED4
 015245 023  INC DE
 015246 315 253 034 CALL L_1CAB
 015251 330  RET CS
 015252 006 010  LOAD B,#10
    L_1AAC:
 015254 167  LOAD (HL),A
 015255 043  INC HL
 015256 032  LOAD A,(DE)
 015257 376 056  COMP A,#56
 015261 050 020  JUMP. EQ,L_1AC3
 015263 315 276 034 CALL L_1CBE
 015266 070 041  JUMP. CS,L_1AD9
 015270 315 243 034 CALL L_1CA3
 015273 330  RET CS
 015274 023  INC DE
 015275 020 355  DECJ,NE B,L_1AAC
    L_1ABF:
 015277 076 013  LOAD A,#13
 015301 067  SETC
 015302 311  RET

    L_1AC3:
 015303 315 336 036 CALL L_1EDE
 015306 006 003  LOAD B,#3
    L_1AC8:
 015310 023  INC DE
 015311 032  LOAD A,(DE)
 015312 315 276 034 CALL L_1CBE
 015315 070 016  JUMP. CS,L_1ADD
 015317 315 243 034 CALL L_1CA3
 015322 330  RET CS
 015323 167  LOAD (HL),A
 015324 043  INC HL
 015325 020 361  DECJ,NE B,L_1AC8
 015327 030 346  JUMP. L_1ABF
 11/05/26 07:21:41  SAMOS.SR                                                     01-30



    L_1AD9:
 015331 076 002  LOAD A,#2
 015333 200  ADD A,B
 015334 107  LOAD B,A
    L_1ADD:
 015335 315 336 036 CALL L_1EDE
 015340 267  OR A,A
 015341 311  RET

    DO_TSTDRI:
 015342 305  PUSH BC
 015343 315 324 036 CALL L_1ED4
 015346 142  LOAD H,D
 015347 153  LOAD L,E
 015350 006 060  LOAD B,#60
 015352 176  LOAD A,(HL)
 015353 043  INC HL
 015354 313  .B H'CB;RES 5,A (Zilog)  pas d'équivalent direct 1re gen
 015355 257  .B H'AF
 015356 376 104  COMP A,#H'44
 015360 040 024  JUMP. NE,L_1B06
 015362 176  LOAD A,(HL)
 015363 043  INC HL
 015364 313  .B H'CB;RES 5,A (Zilog)  pas d'équivalent direct 1re gen
 015365 257  .B H'AF
 015366 376 130  COMP A,#H'58
 015370 040 014  JUMP. NE,L_1B06
 015372 176  LOAD A,(HL)
 015373 043  INC HL
 015374 117  LOAD C,A
 015375 176  LOAD A,(HL)
 015376 043  INC HL
 015377 376 072  COMP A,#72
 015401 040 003  JUMP. NE,L_1B06
 015403 101  LOAD B,C
 015404 124  LOAD D,H
 015405 135  LOAD E,L
    L_1B06:
 015406 365  PUSH AF
 015407 041 354 053 LOAD HL,#H'2BEC
 015412 066 104  LOAD (HL),#H'44
 015414 043  INC HL
 015415 066 130  LOAD (HL),#H'58
 015417 043  INC HL
 015420 160  LOAD (HL),B
 015421 043  INC HL
 015422 066 000  LOAD (HL),#0
 015424 170  LOAD A,B
 015425 326 060  SUB A,#60
 015427 376 003  COMP A,#3
 015431 060 024  JUMP. CC,L_1B2F
 015433 017  RR A
 015434 017  RR A
 015435 267  OR A,A
 015436 040 002  JUMP. NE,L_1B22
 015440 076 040  LOAD A,#40
    L_1B22:
 015442 062 210 053 LOAD H'2B88,A
 015445 041 220 053 LOAD HL,#H'2B90
 015450 315 231 042 CALL L_2299
 015453 176  LOAD A,(HL)
 11/05/26 07:21:41  SAMOS.SR                                                     01-31



 015454 267  OR A,A
 015455 050 006  JUMP. EQ,L_1B35
    L_1B2F:
 015457 361  POP AF
 015460 067  SETC
 015461 076 021  LOAD A,#21
 015463 030 161  JUMP. L_1BA6
    L_1B35:
 015465 361  POP AF
 015466 040 005  JUMP. NE,L_1B3D
 015470 315 124 035 CALL L_1D54
 015473 030 037  JUMP. L_1B5C
    L_1B3D:
 015475 072 342 053 LOAD A,H'2BE2
 015500 062 210 053 LOAD H'2B88,A
 015503 041 343 053 LOAD HL,#H'2BE3
 015506 325  PUSH DE
 015507 021 354 053 LOAD DE,#H'2BEC
 015512 001 011 000 LOAD BC,#H'0009
 015515 355 260  LDIR
 015517 321  POP DE
 015520 052 336 053 LOAD HL,H'2BDE
 015523 042 204 053 LOAD H'2B84,HL
 015526 052 340 053 LOAD HL,H'2BE0
 015531 042 206 053 LOAD H'2B86,HL
    L_1B5C:
 015534 041 166 053 LOAD HL,#H'2B76
 015537 315 250 033 CALL L_1BA8
 015542 077  .B H'3F;CCF (toggle CF) - mnémonique 1re gen ?
 015543 060 101  JUMP. CC,L_1BA6
 015545 325  PUSH DE
 015546 345  PUSH HL
 015547 315 161 032 CALL L_1A71
 015552 321  POP DE
 015553 070 070  JUMP. CS,L_1BA5
 015555 315 046 035 CALL L_1D26
 015560 076 021  LOAD A,#21
 015562 077  .B H'3F;CCF (toggle CF) - mnémonique 1re gen ?
 015563 070 060  JUMP. CS,L_1BA5
 015565 076 012  LOAD A,#12
 015567 315 153 034 CALL L_1C6B
 015572 070 051  JUMP. CS,L_1BA5
 015574 325  PUSH DE
 015575 315 225 036 CALL L_1E95
 015600 267  OR A,A
 015601 355 122  SUBC HL,DE
 015603 345  PUSH HL
 015604 052 204 053 LOAD HL,H'2B84
 015607 031  ADD HL,DE
 015610 042 204 053 LOAD H'2B84,HL
 015613 321  POP DE
 015614 031  ADD HL,DE
 015615 042 206 053 LOAD H'2B86,HL
 015620 321  POP DE
 015621 041 354 053 LOAD HL,#H'2BEC
 015624 006 010  LOAD B,#10
    L_1B96:
 015626 032  LOAD A,(DE)
 015627 023  INC DE
 015630 376 040  COMP A,#40
 015632 050 004  JUMP. EQ,L_1BA0
 11/05/26 07:21:41  SAMOS.SR                                                     01-32



 015634 167  LOAD (HL),A
 015635 043  INC HL
 015636 020 366  DECJ,NE B,L_1B96
    L_1BA0:
 015640 066 000  LOAD (HL),#0
 015642 321  POP DE
 015643 030 267  JUMP. L_1B5C
    L_1BA5:
 015645 321  POP DE
    L_1BA6:
 015646 301  POP BC
 015647 311  RET

    L_1BA8:
 015650 032  LOAD A,(DE)
 015651 315 253 034 CALL L_1CAB
 015654 330  RET CS
 015655 345  PUSH HL
 015656 325  PUSH DE
 015657 023  INC DE
 015660 006 010  LOAD B,#10
    L_1BB2:
 015662 167  LOAD (HL),A
 015663 043  INC HL
 015664 032  LOAD A,(DE)
 015665 023  INC DE
 015666 376 072  COMP A,#72
 015670 050 013  JUMP. EQ,L_1BC5
 015672 315 243 034 CALL L_1CA3
 015675 070 003  JUMP. CS,L_1BC2
 015677 020 361  DECJ,NE B,L_1BB2
 015701 067  SETC
    L_1BC2:
 015702 321  POP DE
 015703 341  POP HL
 015704 311  RET

    L_1BC5:
 015705 315 336 036 CALL L_1EDE
 015710 066 104  LOAD (HL),#H'44
 015712 043  INC HL
 015713 066 122  LOAD (HL),#H'52
 015715 341  POP HL
 015716 341  POP HL
 015717 311  RET

    L_1BD0:
 015720 075  DEC A
 015721 305  PUSH BC
 015722 325  PUSH DE
 015723 117  LOAD C,A
 015724 006 010  LOAD B,#10
 015726 346 037  AND A,#37
 015730 270  COMP A,B
 015731 060 035  JUMP. CC,L_1BF8
 015733 171  LOAD A,C
 015734 021 021 052 LOAD DE,#H'2A11
 015737 267  OR A,A
 015740 027  RLC A
 015741 027  RLC A
 015742 117  LOAD C,A
 11/05/26 07:21:41  SAMOS.SR                                                     01-33



 015743 070 003  JUMP. CS,L_1BE8
 015745 021 261 052 LOAD DE,#H'2AB1
    L_1BE8:
 015750 347 056  .W ?COMPH
 015752 040 014  JUMP. NE,L_1BF8
 015754 267  OR A,A
 015755 027  RLC A
 015756 027  RLC A
 015757 201  ADD A,C
 015760 137  LOAD E,A
 015761 026 000  LOAD D,#0
 015763 031  ADD HL,DE
 015764 176  LOAD A,(HL)
 015765 267  OR A,A
 015766 040 005  JUMP. NE,L_1BFD
    L_1BF8:
 015770 076 022  LOAD A,#22
 015772 067  SETC
 015773 030 016  JUMP. L_1C0B
    L_1BFD:
 015775 345  PUSH HL
 015776 021 016 000 LOAD DE,#H'000E
 016001 031  ADD HL,DE
 016002 021 204 053 LOAD DE,#H'2B84
 016005 001 004 000 LOAD BC,#H'0004
 016010 355 260  LDIR
 016012 341  POP HL
    L_1C0B:
 016013 321  POP DE
 016014 301  POP BC
 016015 311  RET

    L_1C0E:
 016016 315 324 036 CALL L_1ED4
 016021 032  LOAD A,(DE)
 016022 376 044  COMP A,#44
 016024 311  RET

    L_1C15:
 016025 041 356 020 LOAD HL,#H'10EE
    L_1C18:
 016030 325  PUSH DE
    L_1C19:
 016031 313  .B H'CB;BIT 7,(HL) (Zilog)  pas d'équivalent direct 1re gen
 016032 176  .B H'7E
 016033 040 026  JUMP. NE,L_1C33
 016035 032  LOAD A,(DE)
 016036 313  .B H'CB;RES 5,A (Zilog)  pas d'équivalent direct 1re gen
 016037 257  .B H'AF
 016040 023  INC DE
 016041 276  COMP A,(HL)
 016042 043  INC HL
 016043 050 364  JUMP. EQ,L_1C19
    L_1C25:
 016045 313  .B H'CB;BIT 7,(HL) (Zilog)  pas d'équivalent direct 1re gen
 016046 176  .B H'7E
 016047 043  INC HL
 016050 050 373  JUMP. EQ,L_1C25
 016052 176  LOAD A,(HL)
 016053 267  OR A,A
 016054 321  POP DE
 11/05/26 07:21:41  SAMOS.SR                                                     01-34



 016055 040 351  JUMP. NE,L_1C18
 016057 076 013  LOAD A,#13
 016061 067  SETC
 016062 311  RET

    L_1C33:
 016063 321  POP DE
 016064 136  LOAD E,(HL)
 016065 313  .B H'CB;RES 7,E (Zilog)  pas d'équivalent direct 1re gen
 016066 273  .B H'BB
 016067 026 000  LOAD D,#0
 016071 041 121 053 LOAD HL,#H'2B51
 016074 031  ADD HL,DE
 016075 176  LOAD A,(HL)
 016076 241  AND A,C
 016077 302 177 034 JUMP NE,L_1C7F
 016102 076 030  LOAD A,#30
 016104 241  AND A,C
 016105 266  OR A,(HL)
 016106 167  LOAD (HL),A
 016107 062 233 053 LOAD H'2B9B,A
 016112 303 347 035 JUMP L_1DE7
    L_1C4D:
 016115 001 001 010 LOAD BC,#H'0801
 016120 021 021 052 LOAD DE,#H'2A11
 016123 347 056  .W ?COMPH
 016125 040 002  JUMP. NE,L_1C59
 016127 313  .B H'CB;SET 6,C (Zilog)  pas d'équivalent direct 1re gen
 016130 361  .B H'F1
    L_1C59:
 016131 021 024 000 LOAD DE,#H'0014
    L_1C5C:
 016134 176  LOAD A,(HL)
 016135 267  OR A,A
 016136 171  LOAD A,C
 016137 062 233 053 LOAD H'2B9B,A
 016142 310  RET EQ
 016143 031  ADD HL,DE
 016144 014  INC C
 016145 020 365  DECJ,NE B,L_1C5C
 016147 076 024  LOAD A,#24
 016151 067  SETC
 016152 311  RET

    L_1C6B:
 016153 365  PUSH AF
 016154 345  PUSH HL
 016155 335 341  POP IX
 016157 335 176 017 LOAD A,(IX)+17
 016162 267  OR A,A
 016163 050 002  JUMP. EQ,L_1C77
 016165 076 020  LOAD A,#20
    L_1C77:
 016167 335 106 016 LOAD B,(IX)+16
 016172 200  ADD A,B
 016173 107  LOAD B,A
 016174 361  POP AF
 016175 240  AND A,B
 016176 310  RET EQ
    L_1C7F:
 016177 376 010  COMP A,#10
 11/05/26 07:21:41  SAMOS.SR                                                     01-35



 016201 330  RET CS
 016202 346 370  AND A,#H'F8
 016204 067  SETC
 016205 311  RET

    L_1C86:
 016206 041 001 046 LOAD HL,#H'2601
 016211 006 004  LOAD B,#4
    L_1C8B:
 016213 276  COMP A,(HL)
 016214 310  RET EQ
 016215 325  PUSH DE
 016216 021 004 001 LOAD DE,#H'0104
 016221 031  ADD HL,DE
 016222 321  POP DE
 016223 020 366  DECJ,NE B,L_1C8B
 016225 067  SETC
 016226 311  RET

    L_1C97:
 016227 325  PUSH DE
 016230 355 133 324 053 LOAD DE,H'2BD4
 016234 347 056  .W ?COMPH
 016236 072 323 053 LOAD A,H'2BD3
 016241 321  POP DE
 016242 311  RET

    L_1CA3:
 016243 376 060  COMP A,#60
 016245 070 016  JUMP. CS,L_1CB5
 016247 376 072  COMP A,#72
 016251 077  .B H'3F;CCF (toggle CF) - mnémonique 1re gen ?
 016252 320  RET CC
    L_1CAB:
 016253 313  .B H'CB;RES 5,A (Zilog)  pas d'équivalent direct 1re gen
 016254 257  .B H'AF
 016255 376 101  COMP A,#H'41
 016257 070 004  JUMP. CS,L_1CB5
 016261 376 133  COMP A,#H'5B
 016263 077  .B H'3F;CCF (toggle CF) - mnémonique 1re gen ?
 016264 320  RET CC
    L_1CB5:
 016265 076 013  LOAD A,#13
 016267 311  RET

 016270 345  PUSH HL
 016271 041 317 034 LOAD HL,#H'1CCF
 016274 030 004  JUMP. L_1CC2
    L_1CBE:
 016276 345  PUSH HL
 016277 041 316 034 LOAD HL,#H'1CCE
    L_1CC2:
 016302 276  COMP A,(HL)
 016303 067  SETC
 016304 050 006  JUMP. EQ,L_1CCC
 016306 043  INC HL
 016307 313  .B H'CB;BIT 7,(HL) (Zilog)  pas d'équivalent direct 1re gen
 016310 176  .B H'7E
 016311 050 367  JUMP. EQ,L_1CC2
 016313 267  OR A,A
    L_1CCC:
 11/05/26 07:21:41  SAMOS.SR                                                     01-36



 016314 341  POP HL
 016315 311  RET

 016316 133  LOAD E,E
 016317 040 011  JUMP. NE,L_1CDA
 016321 015  DEC C
 016322 057  CPL A
 016323 000  NOP
 016324 200  ADD A,B
    L_1CD5:
 016325 315 206 034 CALL L_1C86
 016330 076 022  LOAD A,#22
    L_1CDA:
 016332 330  RET CS
 016333 345  PUSH HL
 016334 043  INC HL
 016335 106  LOAD B,(HL)
 016336 315 347 035 CALL L_1DE7
 016341 335 341  POP IX
 016343 311  RET

    L_1CE4:
 016344 041 121 053 LOAD HL,#H'2B51
 016347 006 011  LOAD B,#11
    L_1CE9:
 016351 276  COMP A,(HL)
 016352 310  RET EQ
 016353 043  INC HL
 016354 043  INC HL
 016355 043  INC HL
 016356 020 371  DECJ,NE B,L_1CE9
 016360 076 022  LOAD A,#22
 016362 067  SETC
 016363 311  RET

    L_1CF4:
 016364 041 000 000 LOAD HL,#H'0000
 016367 042 202 053 LOAD H'2B82,HL
 016372 053  DEC HL
 016373 042 334 053 LOAD H'2BDC,HL
 016376 335 041 000 043 LOAD IX,#H'2300
 016402 021 003 000 LOAD DE,#H'0003
 016405 001 030 000 LOAD BC,#H'0018
    L_1D08:
 016410 335 176 000 LOAD A,(IX)
 016413 267  OR A,A
    L_1D0C:
 016414 067  SETC
 016415 310  RET EQ
 016416 315 253 036 CALL L_1EAB
 016421 347 056  .W ?COMPH
 016423 300  RET NE
    L_1D14:
 016424 335 345  PUSH IX
 016426 321  POP DE
 016427 032  LOAD A,(DE)
 016430 041 350 045 LOAD HL,#H'25E8
 016433 347 056  .W ?COMPH
 016435 315 235 036 CALL L_1E9D
 016440 050 352  JUMP. EQ,L_1D0C
 016442 335 011  ADD IX,BC
 11/05/26 07:21:41  SAMOS.SR                                                     01-37



 016444 030 342  JUMP. L_1D08
    L_1D26:
 016446 041 000 043 LOAD HL,#H'2300
 016451 001 030 040 LOAD BC,#H'2018
    L_1D2C:
 016454 305  PUSH BC
 016455 325  PUSH DE
 016456 345  PUSH HL
 016457 006 012  LOAD B,#12
    L_1D31:
 016461 032  LOAD A,(DE)
 016462 023  INC DE
 016463 116  LOAD C,(HL)
 016464 043  INC HL
 016465 251  XOR A,C
 016466 040 003  JUMP. NE,L_1D3B
 016470 020 367  DECJ,NE B,L_1D31
 016472 067  SETC
    L_1D3B:
 016473 341  POP HL
 016474 321  POP DE
 016475 301  POP BC
 016476 330  RET CS
 016477 305  PUSH BC
 016500 257  XOR A,A
 016501 107  LOAD B,A
 016502 011  ADD HL,BC
 016503 301  POP BC
 016504 020 346  DECJ,NE B,L_1D2C
 016506 311  RET

    L_1D47:
 016507 325  PUSH DE
 016510 052 206 053 LOAD HL,H'2B86
 016513 355 133 204 053 LOAD DE,H'2B84
 016517 267  OR A,A
 016520 355 122  SUBC HL,DE
 016522 321  POP DE
 016523 311  RET

    L_1D54:
 016524 041 000 000 LOAD HL,#H'0000
 016527 042 204 053 LOAD H'2B84,HL
 016532 041 000 360 LOAD HL,#H'F000
 016535 072 210 053 LOAD A,H'2B88
 016540 346 040  AND A,#40
 016542 040 003  JUMP. NE,L_1D67
 016544 041 320 004 LOAD HL,#H'04D0
    L_1D67:
 016547 042 206 053 LOAD H'2B86,HL
 016552 311  RET

    DO_ADBLK:
 016553 031  ADD HL,DE
 016554 070 012  JUMP. CS,L_1D78
 016556 353  EX HL,DE
 016557 315 107 035 CALL L_1D47
 016562 043  INC HL
 016563 353  EX HL,DE
 016564 347 056  .W ?COMPH
 016566 077  .B H'3F;CCF (toggle CF) - mnémonique 1re gen ?
 11/05/26 07:21:41  SAMOS.SR                                                     01-38



 016567 320  RET CC
    L_1D78:
 016570 315 107 035 CALL L_1D47
 016573 076 026  LOAD A,#26
 016575 067  SETC
 016576 311  RET

    L_1D7F:
 016577 267  OR A,A
 016600 355 122  SUBC HL,DE
 016602 345  PUSH HL
 016603 325  PUSH DE
 016604 355 133 305 053 LOAD DE,H'2BC5
 016610 172  LOAD A,D
 016611 263  OR A,E
 016612 050 023  JUMP. EQ,L_1D9F
 016614 267  OR A,A
 016615 355 122  SUBC HL,DE
 016617 070 024  JUMP. CS,L_1DA5
 016621 355 133 334 053 LOAD DE,H'2BDC
 016625 347 056  .W ?COMPH
 016627 077  .B H'3F;CCF (toggle CF) - mnémonique 1re gen ?
 016630 070 013  JUMP. CS,L_1DA5
 016632 042 334 053 LOAD H'2BDC,HL
 016635 030 006  JUMP. L_1DA5
    L_1D9F:
 016637 355 133 202 053 LOAD DE,H'2B82
 016643 347 056  .W ?COMPH
    L_1DA5:
 016645 321  POP DE
 016646 341  POP HL
 016647 330  RET CS
    L_1DA8:
 016650 042 202 053 LOAD H'2B82,HL
 016653 355 123 200 053 LOAD H'2B80,DE
 016657 335 042 211 053 LOAD H'2B89,IX
 016663 311  RET

    L_1DB4:
 016664 315 161 032 CALL L_1A71
 016667 330  RET CS
 016670 041 000 000 LOAD HL,#H'0000
 016673 042 305 053 LOAD H'2BC5,HL
 016676 315 364 034 CALL L_1CF4
    L_1DC1:
 016701 070 010  JUMP. CS,L_1DCB
 016703 315 177 035 CALL L_1D7F
 016706 315 024 035 CALL L_1D14
 016711 030 366  JUMP. L_1DC1
    L_1DCB:
 016713 315 107 035 CALL L_1D47
 016716 315 177 035 CALL L_1D7F
 016721 267  OR A,A
 016722 311  RET

    L_1DD3:
 016723 376 030  COMP A,#30
 016725 067  SETC
 016726 310  RET EQ
 016727 376 021  COMP A,#21
 016731 067  SETC
 11/05/26 07:21:41  SAMOS.SR                                                     01-39



 016732 310  RET EQ
 016733 341  POP HL
 016734 311  RET

    L_1DDD:
 016735 041 000 000 LOAD HL,#H'0000
 016740 347 004  .W ?IRTC
 016742 347 002  .W ?ITIME
 016744 347 037  .W ?INTUS
 016746 311  RET

    L_1DE7:
 016747 043  INC HL
 016750 116  LOAD C,(HL)
 016751 043  INC HL
 016752 146  LOAD H,(HL)
 016753 151  LOAD L,C
 016754 311  RET

    L_1DED:
 016755 001 120 010 LOAD BC,#H'0850
 016760 041 000 043 LOAD HL,#H'2300
 016763 066 000  LOAD (HL),#0
 016765 021 001 043 LOAD DE,#H'2301
 016770 355 260  LDIR
 016772 041 014 021 LOAD HL,#H'110C
 016775 001 033 000 LOAD BC,#H'001B
 017000 355 260  LDIR
 017002 311  RET

    L_1E03:
 017003 041 000 043 LOAD HL,#H'2300
 017006 345  PUSH HL
 017007 021 001 043 LOAD DE,#H'2301
 017012 001 377 002 LOAD BC,#H'02FF
 017015 066 000  LOAD (HL),#0
 017017 355 260  LDIR
 017021 321  POP DE
 017022 311  RET

    L_1E13:
 017023 315 342 032 CALL DO_TSTDRI
 017026 330  RET CS
    L_1E17:
 017027 072 210 053 LOAD A,H'2B88
 017032 376 040  COMP A,#40
 017034 310  RET EQ
 017035 323 031  LOAD $31,A
 017037 333 031  LOAD A,$31
 017041 313  .B H'CB;BIT 7,A (Zilog)  pas d'équivalent direct 1re gen
 017042 177  .B H'7F
 017043 315 374 040 CALL L_20FC
 017046 076 031  LOAD A,#31
 017050 067  SETC
 017051 310  RET EQ
 017052 267  OR A,A
 017053 311  RET

    L_1E2C:
 017054 346 003  AND A,#3
 017056 062 234 053 LOAD H'2B9C,A
 11/05/26 07:21:41  SAMOS.SR                                                     01-40



 017061 315 023 036 CALL L_1E13
 017064 330  RET CS
 017065 305  PUSH BC
 017066 315 116 036 CALL L_1E4E
 017071 070 021  JUMP. CS,L_1E4C
 017073 315 046 035 CALL L_1D26
 017076 076 012  LOAD A,#12
 017100 077  .B H'3F;CCF (toggle CF) - mnémonique 1re gen ?
 017101 070 011  JUMP. CS,L_1E4C
 017103 361  POP AF
 017104 315 153 034 CALL L_1C6B
 017107 330  RET CS
 017110 072 234 053 LOAD A,H'2B9C
 017113 311  RET

    L_1E4C:
 017114 301  POP BC
 017115 311  RET

    L_1E4E:
 017116 041 166 053 LOAD HL,#H'2B76
 017121 315 242 032 CALL L_1AA2
 017124 330  RET CS
 017125 315 324 036 CALL L_1ED4
 017130 355 123 307 053 LOAD H'2BC7,DE
 017134 315 161 032 CALL L_1A71
 017137 021 166 053 LOAD DE,#H'2B76
 017142 311  RET

    L_1E63:
 017143 325  PUSH DE
 017144 353  EX HL,DE
 017145 315 253 036 CALL L_1EAB
 017150 315 271 036 CALL L_1EB9
 017153 321  POP DE
 017154 311  RET

    L_1E6D:
 017155 072 230 053 LOAD A,H'2B98
 017160 267  OR A,A
 017161 312 243 037 JUMP EQ,DO_RODWIB
 017164 303 274 037 JUMP DO_RIBWOD
    L_1E77:
 017167 315 320 033 CALL L_1BD0
 017172 330  RET CS
 017173 315 345 036 CALL L_1EE5
 017176 072 230 053 LOAD A,H'2B98
 017201 267  OR A,A
 017202 050 003  JUMP. EQ,L_1E87
 017204 335 161 023 LOAD (IX)+23,C
    L_1E87:
 017207 171  LOAD A,C
 017210 110  LOAD C,B
 017211 006 000  LOAD B,#0
 017213 267  OR A,A
 017214 050 001  JUMP. EQ,L_1E8F
 017216 003  INC BC
    L_1E8F:
 017217 140  LOAD H,B
 017220 151  LOAD L,C
 017221 042 305 053 LOAD H'2BC5,HL
 11/05/26 07:21:41  SAMOS.SR                                                     01-41



 017224 311  RET

    L_1E95:
 017225 315 253 036 CALL L_1EAB
 017230 315 235 036 CALL L_1E9D
 017233 353  EX HL,DE
 017234 311  RET

    L_1E9D:
 017235 335 136 014 LOAD E,(IX)+14
 017240 335 126 015 LOAD D,(IX)+15
 017243 311  RET

    L_1EA4:
 017244 335 163 014 LOAD (IX)+14,E
 017247 335 162 015 LOAD (IX)+15,D
 017252 311  RET

    L_1EAB:
 017253 335 156 012 LOAD L,(IX)+12
 017256 335 146 013 LOAD H,(IX)+13
 017261 311  RET

    L_1EB2:
 017262 335 165 012 LOAD (IX)+12,L
 017265 335 164 013 LOAD (IX)+13,H
 017270 311  RET

    L_1EB9:
 017271 345  PUSH HL
 017272 315 153 035 CALL DO_ADBLK
 017275 301  POP BC
 017276 315 235 036 CALL L_1E9D
 017301 347 056  .W ?COMPH
 017303 070 001  JUMP. CS,L_1EC6
 017305 353  EX HL,DE
    L_1EC6:
 017306 077  .B H'3F;CCF (toggle CF) - mnémonique 1re gen ?
 017307 311  RET

    L_1EC8:
 017310 062 323 053 LOAD H'2BD3,A
 017313 041 000 000 LOAD HL,#H'0000
 017316 355 103 324 053 LOAD H'2BD4,BC
 017322 311  RET

    L_1ED3:
 017323 023  INC DE
    L_1ED4:
 017324 032  LOAD A,(DE)
 017325 376 040  COMP A,#40
 017327 050 372  JUMP. EQ,L_1ED3
 017331 376 011  COMP A,#11
 017333 050 366  JUMP. EQ,L_1ED3
 017335 311  RET

    L_1EDE:
 017336 005  DEC B
 017337 310  RET EQ
 017340 066 040  LOAD (HL),#40
 017342 043  INC HL
 11/05/26 07:21:41  SAMOS.SR                                                     01-42



 017343 030 371  JUMP. L_1EDE
    L_1EE5:
 017345 345  PUSH HL
 017346 335 341  POP IX
 017350 335 176 022 LOAD A,(IX)+22
 017353 062 210 053 LOAD H'2B88,A
 017356 311  RET

    L_1EEF:
 017357 353  EX HL,DE
 017360 163  LOAD (HL),E
 017361 043  INC HL
 017362 162  LOAD (HL),D
 017363 043  INC HL
 017364 353  EX HL,DE
 017365 311  RET

    L_1EF6:
 017366 041 232 053 LOAD HL,#H'2B9A
 017371 276  COMP A,(HL)
 017372 310  RET EQ
 017373 345  PUSH HL
 017374 365  PUSH AF
 017375 041 000 043 LOAD HL,#H'2300
 017400 001 000 003 LOAD BC,#H'0300
 017403 327 036  .W ?LOAD
 017405 301  POP BC
 017406 341  POP HL
 017407 330  RET CS
 017410 160  LOAD (HL),B
 017411 311  RET

    DO_INIFLO:
 017412 041 143 020 LOAD HL,#H'1063
 017415 347 010  .W ?IRST2
 017417 315 355 035 CALL L_1DED
 017422 021 216 053 LOAD DE,#H'2B8E
 017425 016 040  LOAD C,#40
    L_1F17:
 017427 363  IOF
 017430 171  LOAD A,C
 017431 376 040  COMP A,#40
 017433 050 130  JUMP. EQ,L_1F75
 017435 323 031  LOAD $31,A
 017437 333 031  LOAD A,$31
 017441 313  .B H'CB;BIT 6,A (Zilog)  pas d'équivalent direct 1re gen
 017442 167  .B H'77
 017443 040 012  JUMP. NE,L_1F2F
 017445 171  LOAD A,C
 017446 306 022  ADD A,#22
 017450 323 031  LOAD $31,A
 017452 006 006  LOAD B,#6
 017454 315 162 042 CALL L_2272
    L_1F2F:
 017457 171  LOAD A,C
 017460 306 002  ADD A,#2
 017462 323 031  LOAD $31,A
 017464 006 117  LOAD B,#H'4F
    L_1F36:
 017466 305  PUSH BC
 017467 006 001  LOAD B,#1
 11/05/26 07:21:41  SAMOS.SR                                                     01-43



 017471 315 162 042 CALL L_2272
 017474 301  POP BC
 017475 020 045  DECJ,NE B,L_1F64
    L_1F3F:
 017477 347 136  .W ?TEXTI
 017501 116  LOAD C,(HL)
 017502 117  LOAD C,A
 017503 040 104  JUMP. NE,L_1F89
 017505 130  LOAD E,B
 017506 000  NOP
 017507 171  LOAD A,C
 017510 366 006  OR A,#6
 017512 027  RLC A
 017513 027  RLC A
 017514 027  RLC A
 017515 347 000  .W ?DICAR
 017517 347 043  .W ?RETUR
    L_1F51:
 017521 022  LOAD (DE),A
 017522 023  INC DE
 017523 313  .B H'CB;SLA C (Zilog)  pas de mnémonique 1re gen
 017524 041  .B H'21
 017525 060 300  JUMP. CC,L_1F17
 017527 021 320 020 LOAD DE,#H'10D0
 017532 327 034  .W ?DIR
 017534 257  XOR A,A
 017535 062 232 053 LOAD H'2B9A,A
 017540 323 031  LOAD $31,A
 017542 373  ION
 017543 311  RET

    L_1F64:
 017544 333 031  LOAD A,$31
 017546 313  .B H'CB;BIT 6,A (Zilog)  pas d'équivalent direct 1re gen
 017547 167  .B H'77
 017550 040 314  JUMP. NE,L_1F36
    L_1F6A:
 017552 171  LOAD A,C
 017553 041 215 053 LOAD HL,#H'2B8D
 017556 315 231 042 CALL L_2299
 017561 257  XOR A,A
 017562 167  LOAD (HL),A
 017563 030 334  JUMP. L_1F51
    L_1F75:
 017565 076 041  LOAD A,#41
 017567 323 041  LOAD $41,A
 017571 056 026  LOAD L,#26
 017573 315 211 037 CALL L_1F89
 017576 070 277  JUMP. CS,L_1F3F
 017600 056 160  LOAD L,#H'70
 017602 315 211 037 CALL L_1F89
 017605 060 343  JUMP. CC,L_1F6A
 017607 030 266  JUMP. L_1F3F
    L_1F89:
 017611 305  PUSH BC
 017612 325  PUSH DE
 017613 021 000 000 LOAD DE,#H'0000
 017616 315 101 040 CALL L_2041
 017621 175  LOAD A,L
 017622 323 047  LOAD $47,A
    L_1F94:
 11/05/26 07:21:41  SAMOS.SR                                                     01-44



 017624 333 047  LOAD A,$47
 017626 267  OR A,A
 017627 372 224 037 JUMP MI,L_1F94
 017632 313  .B H'CB;BIT 4,A (Zilog)  pas d'équivalent direct 1re gen
 017633 147  .B H'67
 017634 050 366  JUMP. EQ,L_1F94
 017636 313  .B H'CB;SRL A (Zilog)  pas de mnémonique 1re gen
 017637 077  .B H'3F
 017640 321  POP DE
 017641 301  POP BC
 017642 311  RET

    DO_RODWIB:
 017643 072 210 053 LOAD A,H'2B88
 017646 376 040  COMP A,#40
 017650 050 053  JUMP. EQ,L_1FD5
 017652 315 162 040 CALL L_2072
 017655 330  RET CS
 017656 041 007 041 LOAD HL,#H'2107
 017661 347 007  .W ?IRST1
 017663 072 210 053 LOAD A,H'2B88
 017666 306 014  ADD A,#14
 017670 323 031  LOAD $31,A
    L_1FBA:
 017672 030 376  JUMP. L_1FBA
    DO_RIBWOD:
 017674 072 210 053 LOAD A,H'2B88
 017677 376 040  COMP A,#40
 017701 050 043  JUMP. EQ,L_1FE6
 017703 315 162 040 CALL L_2072
 017706 330  RET CS
 017707 041 270 041 LOAD HL,#H'21B8
 017712 347 007  .W ?IRST1
 017714 072 210 053 LOAD A,H'2B88
 017717 306 016  ADD A,#16
 017721 323 031  LOAD $31,A
    L_1FD3:
 017723 030 376  JUMP. L_1FD3
    L_1FD5:
 017725 315 367 037 CALL L_1FF7
    L_1FD8:
 017730 315 023 040 CALL L_2013
 017733 076 033  LOAD A,#33
 017735 070 052  JUMP. CS,L_2009
 017737 023  INC DE
 017740 013  DEC BC
 017741 170  LOAD A,B
 017742 261  OR A,C
 017743 040 363  JUMP. NE,L_1FD8
 017745 311  RET

    L_1FE6:
 017746 315 367 037 CALL L_1FF7
    L_1FE9:
 017751 315 052 040 CALL L_202A
 017754 076 032  LOAD A,#32
 017756 070 031  JUMP. CS,L_2009
 017760 023  INC DE
 017761 013  DEC BC
 017762 170  LOAD A,B
 017763 261  OR A,C
 11/05/26 07:21:41  SAMOS.SR                                                     01-45



 017764 040 363  JUMP. NE,L_1FE9
 017766 311  RET

    L_1FF7:
 017767 355 102  SUBC HL,BC
 017771 050 165  JUMP. EQ,L_2070
 017773 345  PUSH HL
 017774 052 204 053 LOAD HL,H'2B84
 017777 011  ADD HL,BC
 020000 301  POP BC
 020001 353  EX HL,DE
    L_2002:
 020002 257  XOR A,A
 020003 062 227 053 LOAD H'2B97,A
 020006 323 000  LOAD $0,A
 020010 311  RET

    L_2009:
 020011 107  LOAD B,A
 020012 333 041  LOAD A,$41
 020014 313  .B H'CB;BIT 2,A (Zilog)  pas d'équivalent direct 1re gen
 020015 127  .B H'57
 020016 170  LOAD A,B
 020017 310  RET EQ
 020020 076 030  LOAD A,#30
 020022 311  RET

    L_2013:
 020023 305  PUSH BC
 020024 315 101 040 CALL L_2041
 020027 076 040  LOAD A,#40
 020031 323 047  LOAD $47,A
    L_201B:
 020033 333 047  LOAD A,$47
 020035 267  OR A,A
 020036 372 033 040 JUMP MI,L_201B
 020041 001 040 000 LOAD BC,#H'0020
 020044 355 262  INIR
 020046 301  POP BC
 020047 313  .B H'CB;SRL A (Zilog)  pas de mnémonique 1re gen
 020050 077  .B H'3F
 020051 311  RET

    L_202A:
 020052 305  PUSH BC
 020053 315 101 040 CALL L_2041
 020056 076 060  LOAD A,#60
 020060 323 047  LOAD $47,A
 020062 001 040 000 LOAD BC,#H'0020
 020065 355 263  OUTIR
    L_2037:
 020067 333 047  LOAD A,$47
 020071 267  OR A,A
 020072 372 067 040 JUMP MI,L_2037
 020075 301  POP BC
 020076 313  .B H'CB;SRL A (Zilog)  pas de mnémonique 1re gen
 020077 077  .B H'3F
 020100 311  RET

    L_2041:
 020101 325  PUSH DE
 11/05/26 07:21:41  SAMOS.SR                                                     01-46



 020102 173  LOAD A,E
 020103 346 037  AND A,#37
 020105 323 043  LOAD $43,A
 020107 006 005  LOAD B,#5
 020111 173  LOAD A,E
    L_204A:
 020112 313  .B H'CB;SRL D (Zilog)  pas de mnémonique 1re gen
 020113 072  .B H'3A
 020114 037  RRC A
 020115 020 373  DECJ,NE B,L_204A
 020117 137  LOAD E,A
 020120 016 014  LOAD C,#14
 020122 353  EX HL,DE
 020123 006 011  LOAD B,#11
    L_2055:
 020125 051  ADD HL,HL
 020126 174  LOAD A,H
 020127 221  SUB A,C
 020130 070 003  JUMP. CS,L_205D
 020132 147  LOAD H,A
 020133 313  .B H'CB;SET 0,L (Zilog)  pas d'équivalent direct 1re gen
 020134 305  .B H'C5
    L_205D:
 020135 020 366  DECJ,NE B,L_2055
 020137 353  EX HL,DE
 020140 172  LOAD A,D
 020141 120  LOAD D,B
 020142 313  .B H'CB;SRL A (Zilog)  pas de mnémonique 1re gen
 020143 077  .B H'3F
 020144 313 022  RLC D
 020146 323 046  LOAD $46,A
 020150 173  LOAD A,E
 020151 323 044  LOAD $44,A
 020153 172  LOAD A,D
 020154 323 045  LOAD $45,A
 020156 321  POP DE
 020157 311  RET

    L_2070:
 020160 341  POP HL
 020161 311  RET

    L_2072:
 020162 345  PUSH HL
 020163 267  OR A,A
 020164 355 102  SUBC HL,BC
 020166 341  POP HL
 020167 050 367  JUMP. EQ,L_2070
 020171 345  PUSH HL
 020172 052 204 053 LOAD HL,H'2B84
 020175 345  PUSH HL
 020176 011  ADD HL,BC
 020177 315 210 042 CALL L_2288
 020202 042 221 053 LOAD H'2B91,HL
 020205 341  POP HL
 020206 301  POP BC
 020207 011  ADD HL,BC
 020210 315 210 042 CALL L_2288
 020213 355 123 235 053 LOAD H'2B9D,DE
 020217 042 224 053 LOAD H'2B94,HL
 020222 001 000 320 LOAD BC,#H'D000
 11/05/26 07:21:41  SAMOS.SR                                                     01-47



    L_2095:
 020225 315 255 042 CALL L_22AD
 020230 333 031  LOAD A,$31
 020232 313  .B H'CB;BIT 5,A (Zilog)  pas d'équivalent direct 1re gen
 020233 157  .B H'6F
 020234 050 012  JUMP. EQ,L_20A8
 020236 013  DEC BC
 020237 170  LOAD A,B
 020240 261  OR A,C
 020241 040 362  JUMP. NE,L_2095
 020243 076 030  LOAD A,#30
 020245 067  SETC
 020246 030 124  JUMP. L_20FC
    L_20A8:
 020250 315 002 040 CALL L_2002
 020253 006 240  LOAD B,#H'A0
 020255 315 177 042 CALL L_227F
    L_20B0:
 020260 315 127 042 CALL L_2257
 020263 041 000 000 LOAD HL,#H'0000
 020266 042 237 053 LOAD H'2B9F,HL
 020271 257  XOR A,A
 020272 062 226 053 LOAD H'2B96,A
 020275 355 133 221 053 LOAD DE,H'2B91
 020301 052 224 053 LOAD HL,H'2B94
 020304 315 274 042 CALL L_22BC
 020307 310  RET EQ
 020310 115  LOAD C,L
 020311 174  LOAD A,H
 020312 272  COMP A,D
 020313 050 006  JUMP. EQ,L_20D3
 020315 024  INC D
 020316 142  LOAD H,D
 020317 056 000  LOAD L,#0
 020321 016 020  LOAD C,#20
    L_20D3:
 020323 042 221 053 LOAD H'2B91,HL
    L_20D6:
 020326 315 074 042 CALL L_223C
 020331 266  OR A,(HL)
 020332 167  LOAD (HL),A
 020333 315 061 042 CALL L_2231
 020336 325  PUSH DE
 020337 355 133 235 053 LOAD DE,H'2B9D
 020343 163  LOAD (HL),E
 020344 043  INC HL
 020345 162  LOAD (HL),D
 020346 041 000 001 LOAD HL,#H'0100
 020351 031  ADD HL,DE
 020352 042 235 053 LOAD H'2B9D,HL
 020355 321  POP DE
 020356 034  INC E
 020357 171  LOAD A,C
 020360 273  COMP A,E
 020361 040 343  JUMP. NE,L_20D6
 020363 052 237 053 LOAD HL,H'2B9F
 020366 042 241 053 LOAD H'2BA1,HL
 020371 074  INC A
 020372 273  COMP A,E
 020373 311  RET

 11/05/26 07:21:41  SAMOS.SR                                                     01-48



    L_20FC:
 020374 365  PUSH AF
 020375 315 255 042 CALL L_22AD
 020400 076 144  LOAD A,#H'64
 020402 062 277 105 LOAD H'45BF,A
 020405 361  POP AF
 020406 311  RET

 020407 076 022  LOAD A,#22
 020411 062 240 041 LOAD H'21A0,A
 020414 315 151 041 CALL L_2169
 020417 060 012  JUMP. CC,L_211B
 020421 315 046 042 CALL L_2226
 020424 076 033  LOAD A,#33
 020426 060 020  JUMP. CC,L_2128
    L_2118:
 020430 341  POP HL
 020431 030 341  JUMP. L_20FC
    L_211B:
 020433 052 237 053 LOAD HL,H'2B9F
 020436 175  LOAD A,L
 020437 264  OR A,H
 020440 314 260 040 CALL EQ,L_20B0
 020443 050 363  JUMP. EQ,L_2118
 020445 315 264 042 CALL L_22B4
    L_2128:
 020450 373  ION
 020451 311  RET

 020452 315 264 042 CALL L_22B4
 020455 041 065 041 LOAD HL,#H'2135
 020460 042 142 105 LOAD H'4562,HL
 020463 373  ION
 020464 311  RET

 020465 257  XOR A,A
 020466 062 240 041 LOAD H'21A0,A
 020471 315 151 041 CALL L_2169
 020474 060 020  JUMP. CC,L_214E
 020476 052 241 053 LOAD HL,H'2BA1
 020501 042 237 053 LOAD H'2B9F,HL
 020504 315 046 042 CALL L_2226
 020507 076 032  LOAD A,#32
 020511 060 017  JUMP. CC,L_215A
    L_214B:
 020513 341  POP HL
 020514 030 256  JUMP. L_20FC
    L_214E:
 020516 052 237 053 LOAD HL,H'2B9F
 020521 175  LOAD A,L
 020522 264  OR A,H
 020523 040 022  JUMP. NE,L_2167
 020525 315 260 040 CALL L_20B0
 020530 050 361  JUMP. EQ,L_214B
    L_215A:
 020532 072 210 053 LOAD A,H'2B88
 020535 306 016  ADD A,#16
 020537 323 031  LOAD $31,A
 020541 041 270 041 LOAD HL,#H'21B8
 020544 042 142 105 LOAD H'4562,HL
    L_2167:
 11/05/26 07:21:41  SAMOS.SR                                                     01-49



 020547 373  ION
 020550 311  RET

    L_2169:
 020551 333 031  LOAD A,$31
 020553 346 017  AND A,#17
 020555 137  LOAD E,A
 020556 315 074 042 CALL L_223C
 020561 246  AND A,(HL)
 020562 310  RET EQ
 020563 103  LOAD B,E
 020564 315 061 042 CALL L_2231
 020567 136  LOAD E,(HL)
 020570 043  INC HL
 020571 126  LOAD D,(HL)
 020572 315 223 042 CALL L_2293
 020575 306 014  ADD A,#14
 020577 323 031  LOAD $31,A
 020601 016 032  LOAD C,#32
    L_2183:
 020603 333 031  LOAD A,$31
 020605 313  .B H'CB;BIT 4,A (Zilog)  pas d'équivalent direct 1re gen
 020606 147  .B H'67
 020607 040 372  JUMP. NE,L_2183
 020611 333 033  LOAD A,$33
    L_218B:
 020613 355  .B H'ED;IN F,(C) (Z80 undoc., ED 70)  lit port C, n'affecte que les flags
 020614 160  .B H'70
 020615 362 213 041 JUMP PL,L_218B
 020620 333 033  LOAD A,$33
 020622 276  COMP A,(HL)
 020623 067  SETC
 020624 300  RET NE
 020625 150  LOAD L,B
 020626 257  XOR A,A
 020627 107  LOAD B,A
 020630 147  LOAD H,A
    L_2199:
 020631 355  .B H'ED;IN F,(C) (Z80 undoc., ED 70)  lit port C, n'affecte que les flags
 020632 160  .B H'70
 020633 362 231 041 JUMP PL,L_2199
 020636 333 033  LOAD A,$33
 020640 106  LOAD B,(HL)
 020641 023  INC DE
 020642 204  ADD A,H
 020643 147  LOAD H,A
 020644 020 363  DECJ,NE B,L_2199
    L_21A6:
 020646 355  .B H'ED;IN F,(C) (Z80 undoc., ED 70)  lit port C, n'affecte que les flags
 020647 160  .B H'70
 020650 362 246 041 JUMP PL,L_21A6
 020653 333 033  LOAD A,$33
 020655 274  COMP A,H
 020656 067  SETC
 020657 300  RET NE
 020660 135  LOAD E,L
 020661 315 074 042 CALL L_223C
 020664 057  CPL A
 020665 246  AND A,(HL)
 020666 167  LOAD (HL),A
 020667 311  RET
 11/05/26 07:21:41  SAMOS.SR                                                     01-50




 020670 333 031  LOAD A,$31
 020672 346 017  AND A,#17
 020674 137  LOAD E,A
 020675 315 074 042 CALL L_223C
 020700 246  AND A,(HL)
 020701 050 116  JUMP. EQ,L_2211
 020703 057  CPL A
 020704 246  AND A,(HL)
 020705 167  LOAD (HL),A
 020706 315 223 042 CALL L_2293
 020711 306 017  ADD A,#17
 020713 323 031  LOAD $31,A
 020715 126  LOAD D,(HL)
 020716 315 061 042 CALL L_2231
 020721 176  LOAD A,(HL)
 020722 043  INC HL
 020723 146  LOAD H,(HL)
 020724 157  LOAD L,A
 020725 076 050  LOAD A,#50
 020727 006 050  LOAD B,#50
 020731 016 030  LOAD C,#30
    L_21DB:
 020733 355  .B H'ED;IN F,(C) (Z80 undoc., ED 70)  lit port C, n'affecte que les flags
 020734 160  .B H'70
 020735 362 333 041 JUMP PL,L_21DB
 020740 323 030  LOAD $30,A
 020742 020 367  DECJ,NE B,L_21DB
 020744 076 377  LOAD A,#H'FF
    L_21E6:
 020746 355  .B H'ED;IN F,(C) (Z80 undoc., ED 70)  lit port C, n'affecte que les flags
 020747 160  .B H'70
 020750 362 346 041 JUMP PL,L_21E6
 020753 323 030  LOAD $30,A
 020755 172  LOAD A,D
    L_21EE:
 020756 355  .B H'ED;IN F,(C) (Z80 undoc., ED 70)  lit port C, n'affecte que les flags
 020757 160  .B H'70
 020760 362 356 041 JUMP PL,L_21EE
 020763 323 030  LOAD $30,A
 020765 257  XOR A,A
 020766 107  LOAD B,A
    L_21F7:
 020767 355  .B H'ED;IN F,(C) (Z80 undoc., ED 70)  lit port C, n'affecte que les flags
 020770 160  .B H'70
 020771 362 367 041 JUMP PL,L_21F7
 020774 206  ADD A,(HL)
 020775 355 243  OUTI
 020777 040 366  JUMP. NE,L_21F7
    L_2201:
 021001 355  .B H'ED;IN F,(C) (Z80 undoc., ED 70)  lit port C, n'affecte que les flags
 021002 160  .B H'70
 021003 362 001 042 JUMP PL,L_2201
 021006 323 030  LOAD $30,A
 021010 076 000  LOAD A,#0
    L_220A:
 021012 355  .B H'ED;IN F,(C) (Z80 undoc., ED 70)  lit port C, n'affecte que les flags
 021013 160  .B H'70
 021014 362 012 042 JUMP PL,L_220A
 021017 323 030  LOAD $30,A
    L_2211:
 11/05/26 07:21:41  SAMOS.SR                                                     01-51



 021021 052 237 053 LOAD HL,H'2B9F
 021024 175  LOAD A,L
 021025 264  OR A,H
 021026 040 014  JUMP. NE,L_2224
 021030 052 241 053 LOAD HL,H'2BA1
 021033 042 237 053 LOAD H'2B9F,HL
 021036 041 052 041 LOAD HL,#H'212A
 021041 042 142 105 LOAD H'4562,HL
    L_2224:
 021044 373  ION
 021045 311  RET

    L_2226:
 021046 041 226 053 LOAD HL,#H'2B96
 021051 064  INC (HL)
 021052 176  LOAD A,(HL)
 021053 043  INC HL
 021054 064  INC (HL)
 021055 376 036  COMP A,#36
 021057 077  .B H'3F;CCF (toggle CF) - mnémonique 1re gen ?
 021060 311  RET

    L_2231:
 021061 046 000  LOAD H,#0
 021063 153  LOAD L,E
 021064 051  ADD HL,HL
 021065 325  PUSH DE
 021066 021 243 053 LOAD DE,#H'2BA3
 021071 031  ADD HL,DE
 021072 321  POP DE
 021073 311  RET

    L_223C:
 021074 041 117 042 LOAD HL,#H'224F
 021077 026 000  LOAD D,#0
 021101 173  LOAD A,E
 021102 313  .B H'CB;RES 3,E (Zilog)  pas d'équivalent direct 1re gen
 021103 233  .B H'9B
 021104 031  ADD HL,DE
 021105 137  LOAD E,A
 021106 176  LOAD A,(HL)
 021107 041 237 053 LOAD HL,#H'2B9F
 021112 313  .B H'CB;BIT 3,E (Zilog)  pas d'équivalent direct 1re gen
 021113 133  .B H'5B
 021114 310  RET EQ
 021115 043  INC HL
 021116 311  RET

 021117 001 002 004 LOAD BC,#H'0402
 021122 010  EX AF
 021123 020 040  DECJ,NE B,L_2275
 021125 100  LOAD B,B
 021126 200  ADD A,B
    L_2257:
 021127 315 223 042 CALL L_2293
 021132 072 222 053 LOAD A,H'2B92
 021135 016 020  LOAD C,#20
 021137 106  LOAD B,(HL)
 021140 167  LOAD (HL),A
 021141 220  SUB A,B
 021142 310  RET EQ
 11/05/26 07:21:41  SAMOS.SR                                                     01-52



 021143 060 004  JUMP. CC,L_2269
 021145 016 000  LOAD C,#0
 021147 355 104  NEG A
    L_2269:
 021151 107  LOAD B,A
 021152 072 210 053 LOAD A,H'2B88
 021155 306 012  ADD A,#12
 021157 201  ADD A,C
 021160 323 031  LOAD $31,A
    L_2272:
 021162 323 032  LOAD $32,A
 021164 305  PUSH BC
    L_2275:
 021165 006 026  LOAD B,#26
 021167 315 177 042 CALL L_227F
 021172 301  POP BC
 021173 020 365  DECJ,NE B,L_2272
 021175 006 007  LOAD B,#7
    L_227F:
 021177 305  PUSH BC
 021200 006 000  LOAD B,#0
    L_2282:
 021202 020 376  DECJ,NE B,L_2282
 021204 301  POP BC
 021205 020 370  DECJ,NE B,L_227F
 021207 311  RET

    L_2288:
 021210 365  PUSH AF
 021211 175  LOAD A,L
 021212 346 017  AND A,#17
 021214 051  ADD HL,HL
    L_228D:
 021215 051  ADD HL,HL
 021216 051  ADD HL,HL
 021217 051  ADD HL,HL
 021220 157  LOAD L,A
 021221 361  POP AF
    L_2292:
 021222 311  RET

    L_2293:
 021223 072 210 053 LOAD A,H'2B88
 021226 041 215 053 LOAD HL,#H'2B8D
    L_2299:
 021231 027  RLC A
 021232 070 005  JUMP. CS,L_22A1
 021234 053  DEC HL
 021235 027  RLC A
 021236 070 001  JUMP. CS,L_22A1
 021240 053  DEC HL
    L_22A1:
 021241 072 210 053 LOAD A,H'2B88
 021244 311  RET

 021245 041 223 053 LOAD HL,#H'2B93
 021250 072 210 053 LOAD A,H'2B88
 021253 246  AND A,(HL)
 021254 311  RET

    L_22AD:
 11/05/26 07:21:41  SAMOS.SR                                                     01-53



 021255 072 210 053 LOAD A,H'2B88
 021260 306  .B H'C6;orphelin avant L_22B1
    L_22B1:
 021261 012  LOAD A,(BC)
 021262 030 005  JUMP. L_22B9
    L_22B4:
 021264 072 210 053 LOAD A,H'2B88
 021267 306 014  ADD A,#14
    L_22B9:
 021271 323 031  LOAD $31,A
 021273 311  RET

    L_22BC:
 021274 345  PUSH HL
 021275 267  OR A,A
 021276 355  .B H'ED;orphelin avant L_22BF
    L_22BF:
 021277 122  LOAD D,D
 021300 341  POP HL
 021301 311  RET

 021302 024  INC D
 021303 040 310  JUMP. NE,L_228D
 021305 303 104 322 JUMP H'D244
 021310 105  LOAD B,L
 021311 000  NOP
 021312 011  ADD HL,BC
 021313 040 305  JUMP. NE,L_2292
 021315 322 103 322 JUMP CC,H'D243
 021320 105  LOAD B,L
 021321 000  NOP
 021322 050 040  JUMP. EQ,L_22F4
 021324 323 324  LOAD $H'D4,A
 021326 102  LOAD B,D
 021327 322 105 000 JUMP CC,H'0045
 021332 036 040  LOAD E,#40
 021334 325  PUSH DE
 021335 306 102  ADD A,#H'42
 021337 322 105 000 JUMP CC,H'0045
 021342 035  DEC E
 021343 040 314  JUMP. NE,L_22B1
 021345 304 102 322 CALL NE,H'D242
 021350 105  LOAD B,L
 021351 000  NOP
 021352 004  INC B
 021353 040 322  JUMP. NE,L_22BF
 021355 320  RET CC
 021356 101  LOAD B,C
 021357 322 105 000 JUMP CC,H'0045
 021362 016 040  LOAD C,#40
    L_22F4:
 021364 322 304 101 JUMP CC,H'41C4
 021367 322 105 125 JUMP CC,H'5545
 021372 000  NOP
 021373 101  LOAD B,C
 021374 322 307 104 JUMP CC,H'44C7
 021377 000  NOP

    000001 .END


Pass 2 complete  04 sec 
1007 references
0/0/0 if/else/endif
0 inserted files
Source file 3105 usefull lines long
Binary file 011400 bytes long
Assembly time: 07 sec  26614 lines/min

