 01 SYS.SR
 11/05/26 07:20:40  SYS.SR                                                       01-01



    .TITLE SYS.SR
    .PROC Z80
    .REF  FLO

    ;SYS-MON V2.2  PARTIE SYSTEME / MONITEUR DU SMAKY 6
    ;ZONE 0000H..0FFFH (4 KO, ORIGINELLEMENT 4 EPROMS TMS2716)

    ;SOURCE RECONSTITUE PAR REVERSE-ENGINEERING DU BINAIRE SYS.SY,
    ;DANS LE CADRE DU TRAVAIL DE CONSERVATION DES SMAKY
    ;FINANCE PAR EPSITEC SA.

    ;AUTEUR PRINCIPAL DE SAMOS : ALAIN CAPT (CONTROLEUR FLOPPY,
    ;FILE SYSTEM ET BEAUCOUP D'AUTRES PARTIES).
    ;D'AUTRES CONTRIBUTEURS QUE NOUS CHERCHONS A IDENTIFIER.

    ;CETTE VERSION SUPPORTE LE DISQUE DUR (CONTROLEUR WD1002) ET
    ;LES DISQUETTES MICROPOLIS (NON COUVERTES PAR LE SIMULATEUR
    ;A CE STADE). VERSION 2.2 DE SYS COMPLEMENTEE PAR SAMOS 2.2
    ;EN ZONE 1000H..22FFH (FICHIER SAMOS.SR SEPARE).



    ;DEBUT DU CODE SYS-MON
    ;=====================


    RST00:
 000000 363  IOF
 000001 061 060 105 LOAD SP,#H'4530
 000004 303 005 001 JUMP L_0105
 000007 124  LOAD D,H
    RST08H:
 000010 345  PUSH HL
 000011 052 142 105 LOAD HL,H'4562
 000014 343  EX (SP),HL
 000015 311  RET

 000016 054  INC L
 000017 040  .B 40;orphelin avant RST10H
    RST10H:
 000020 345  PUSH HL
 000021 052 144 105 LOAD HL,H'4564
 000024 343  EX (SP),HL
 000025 311  RET

 000026 041  .B 41;orphelin avant 0017
 000027 041  .B 41;orphelin avant RST18H
    RST18H:
 000030 345  PUSH HL
 000031 052 114 105 LOAD HL,H'454C
 000034 343  EX (SP),HL
 000035 311  RET

 000036 117  LOAD C,A
 000037 103  LOAD B,E
    RST20H:
 000040 345  PUSH HL
 000041 052 134 105 LOAD HL,H'455C
 000044 343  EX (SP),HL
 000045 311  RET

 11/05/26 07:20:40  SYS.SR                                                       01-02



 000046 015  DEC C
 000047 124  LOAD D,H
    RST28H:
 000050 345  PUSH HL
 000051 052 150 105 LOAD HL,H'4568
 000054 343  EX (SP),HL
 000055 311  RET

 000056 011  ADD HL,BC
 000057 056  .B 56;orphelin avant RST30H
    RST30H:
 000060 345  PUSH HL
 000061 052 152 105 LOAD HL,H'456A
 000064 343  EX (SP),HL
 000065 311  RET

 000066 122  LOAD D,D
 000067 011  ADD HL,BC
    RST38H:
 000070 345  PUSH HL
 000071 052 146 105 LOAD HL,H'4566
 000074 343  EX (SP),HL
 000075 311  RET

 000076 365  PUSH AF
 000077 305  PUSH BC
 000100 325  PUSH DE
 000101 345  PUSH HL
 000102 333 001  LOAD A,$1
 000104 346 010  AND A,#10
 000106 050 071  JUMP. EQ,L_0081
 000110 323 001  LOAD $1,A
 000112 315 110 001 CALL L_0148
 000115 315 225 001 CALL L_0195
 000120 052 156 105 LOAD HL,H'456E
 000123 174  LOAD A,H
 000124 265  OR A,L
 000125 050 010  JUMP. EQ,L_005F
 000127 053  DEC HL
 000130 042 156 105 LOAD H'456E,HL
 000133 174  LOAD A,H
 000134 265  OR A,L
 000135 050 015  JUMP. EQ,L_006C
    L_005F:
 000137 052 162 105 LOAD HL,H'4572
 000142 174  LOAD A,H
 000143 265  OR A,L
 000144 030 016  JUMP. L_0074
    NMI:
 000146 345  PUSH HL
 000147 052 154 105 LOAD HL,H'456C
 000152 343  EX (SP),HL
 000153 311  RET

    L_006C:
 000154 052 160 105 LOAD HL,H'4570
 000157 021 137 000 LOAD DE,#L_005F
 000162 325  PUSH DE
 000163 351  JUMP (HL)
    L_0074:
 000164 050 005  JUMP. EQ,L_007B
 11/05/26 07:20:40  SYS.SR                                                       01-03



    L_0076:
 000166 021 173 000 LOAD DE,#L_007B
 000171 325  PUSH DE
 000172 351  JUMP (HL)
    L_007B:
 000173 341  POP HL
 000174 321  POP DE
 000175 301  POP BC
 000176 361  POP AF
 000177 373  ION
 000200 311  RET

    L_0081:
 000201 052 136 105 LOAD HL,H'455E
 000204 174  LOAD A,H
 000205 265  OR A,L
 000206 040 356  JUMP. NE,L_0076
 000210 347 136  .W ?TEXTI
 000212 111  LOAD C,C
 000213 116  LOAD C,(HL)
 000214 124  LOAD D,H
 000215 000  NOP
 000216 341  POP HL
 000217 321  POP DE
 000220 301  POP BC
 000221 361  POP AF
 000222 303 141 012 JUMP L_0A61
    L_0095:
 000225 041 112 105 LOAD HL,#H'454A
 000230 006 260  LOAD B,#H'B0
 000232 257  XOR A,A
    L_009B:
 000233 167  LOAD (HL),A
 000234 043  INC HL
 000235 020 374  DECJ,NE B,L_009B
 000237 076 200  LOAD A,#H'80
 000241 062 212 105 LOAD H'458A,A
 000244 062 225 105 LOAD H'4595,A
 000247 062 266 105 LOAD H'45B6,A
 000252 062 377 105 LOAD H'45FF,A
 000255 041 226 105 LOAD HL,#H'4596
 000260 042 174 105 LOAD H'457C,HL
    L_00B3:
 000263 020 376  DECJ,NE B,L_00B3
 000265 333 000  LOAD A,$0
 000267 346 200  AND A,#H'80
 000271 040 370  JUMP. NE,L_00B3
 000273 016 005  LOAD C,#5
 000275 315 165 005 CALL L_0575
 000300 016 007  LOAD C,#7
 000302 315 165 005 CALL L_0575
 000305 076 311  LOAD A,#H'C9
 000307 062 271 105 LOAD H'45B9,A
 000312 062 274 105 LOAD H'45BC,A
 000315 041 076 000 LOAD HL,#H'003E
 000320 042 146 105 LOAD H'4566,HL
 000323 041 047 001 LOAD HL,#H'0127
 000326 042 134 105 LOAD H'455C,HL
 000331 076 104  LOAD A,#H'44
 000333 347 076  .W ?BEEP
 000335 016 024  LOAD C,#24
 11/05/26 07:20:40  SYS.SR                                                       01-04



 000337 347 126  .W ?IDIS
 000341 076 001  LOAD A,#1
 000343 323 000  LOAD $0,A
 000345 062 177 105 LOAD LAMODI,A
 000350 021 000 100 LOAD DE,#SALPHA
 000353 257  XOR A,A
 000354 157  LOAD L,A
 000355 147  LOAD H,A
 000356 006 004  LOAD B,#4
    L_00F0:
 000360 031  ADD HL,DE
 000361 116  LOAD C,(HL)
 000362 167  LOAD (HL),A
 000363 276  COMP A,(HL)
 000364 161  LOAD (HL),C
 000365 040 004  JUMP. NE,L_00FB
 000367 306 020  ADD A,#20
 000371 020 365  DECJ,NE B,L_00F0
    L_00FB:
 000373 345  PUSH HL
 000374 046 000  LOAD H,#0
 000376 157  LOAD L,A
 000377 347 124  .W ?BINBC
 000401 105  LOAD B,L
 000402 341  POP HL
 000403 053  DEC HL
 000404 311  RET

    L_0105:
 000405 315 225 000 CALL L_0095
 000410 170  LOAD A,B
 000411 042 140 105 LOAD MAXMEM,HL
 000414 371  LOAD SP,HL
 000415 041 015 016 LOAD HL,#H'0E0D
 000420 347 006  .W ?DITEX
 000422 347 071  .W ?AFHEX
 000424 347 006  .W ?DITEX
 000426 041 371 007 LOAD HL,#L_07F9
 000431 030 006  JUMP. L_0121
    L_011B:
 000433 347 123  .W ?TEXT
 000435 156  LOAD L,(HL)
 000436 011  ADD HL,BC
    L_011F:
 000437 347 005  .W ?GETLI
    L_0121:
 000441 347 034  .W ?BRANC
 000443 070 366  JUMP. CS,L_011B
 000445 325  PUSH DE
 000446 311  RET

 000447 363  IOF
 000450 062 124 105 LOAD H'4554,A
 000453 343  EX (SP),HL
 000454 176  LOAD A,(HL)
 000455 043  INC HL
 000456 343  EX (SP),HL
 000457 345  PUSH HL
 000460 365  PUSH AF
 000461 313  .B H'CB;SLA A (Zilog)  pas de mnémonique 1re gen
 000462 047  .B H'27
 11/05/26 07:20:40  SYS.SR                                                       01-05



 000463 052 132 105 LOAD HL,TABEX
 000466 070 003  JUMP. CS,L_013B
 000470 041 060 017 LOAD HL,#DISP_RST20H
    L_013B:
 000473 205  ADD A,L
 000474 157  LOAD L,A
 000475 176  LOAD A,(HL)
 000476 043  INC HL
 000477 146  LOAD H,(HL)
 000500 157  LOAD L,A
 000501 361  POP AF
 000502 072 124 105 LOAD A,H'4554
 000505 343  EX (SP),HL
 000506 373  ION
 000507 311  RET

    L_0148:
 000510 041 277 105 LOAD HL,#FLOFF
 000513 176  LOAD A,(HL)
 000514 267  OR A,A
 000515 050 006  JUMP. EQ,L_0155
 000517 075  DEC A
 000520 040 002  JUMP. NE,L_0154
 000522 323 031  LOAD $31,A
    L_0154:
 000524 167  LOAD (HL),A
    L_0155:
 000525 041 200 105 LOAD HL,#H'4580
 000530 066 000  LOAD (HL),#0
 000532 333 000  LOAD A,$0
 000534 313  .B H'CB;BIT 7,A (Zilog)  pas d'équivalent direct 1re gen
 000535 177  .B H'7F
 000536 040 010  JUMP. NE,L_0168
 000540 062 176 105 LOAD H'457E,A
 000543 257  XOR A,A
 000544 062 130 105 LOAD H'4558,A
 000547 311  RET

    L_0168:
 000550 346 177  AND A,#H'7F
    L_016A:
 000552 167  LOAD (HL),A
 000553 043  INC HL
 000554 066 000  LOAD (HL),#0
 000556 043  INC HL
 000557 176  LOAD A,(HL)
 000560 376 200  COMP A,#H'80
 000562 310  RET EQ
 000563 053  DEC HL
 000564 006 000  LOAD B,#0
    L_0176:
 000566 020 376  DECJ,NE B,L_0176
 000570 333 001  LOAD A,$1
 000572 346 004  AND A,#4
 000574 310  RET EQ
 000575 333 000  LOAD A,$0
 000577 346 177  AND A,#H'7F
 000601 107  LOAD B,A
 000602 345  PUSH HL
 000603 041 177 105 LOAD HL,#LAMODI
    L_0186:
 11/05/26 07:20:40  SYS.SR                                                       01-06



 000606 043  INC HL
 000607 176  LOAD A,(HL)
 000610 267  OR A,A
 000611 050 005  JUMP. EQ,L_0190
 000613 270  COMP A,B
 000614 040 370  JUMP. NE,L_0186
 000616 341  POP HL
 000617 311  RET

    L_0190:
 000620 063  INC SP
 000621 063  INC SP
 000622 170  LOAD A,B
 000623 030 325  JUMP. L_016A
    L_0195:
 000625 021 200 105 LOAD DE,#H'4580
    L_0198:
 000630 041 212 105 LOAD HL,#H'458A
    L_019B:
 000633 043  INC HL
 000634 043  INC HL
 000635 176  LOAD A,(HL)
 000636 376 200  COMP A,#H'80
 000640 050 067  JUMP. EQ,L_01D9
 000642 053  DEC HL
 000643 032  LOAD A,(DE)
 000644 267  OR A,A
 000645 050 034  JUMP. EQ,L_01C3
 000647 276  COMP A,(HL)
 000650 040 005  JUMP. NE,L_01AF
    L_01AA:
 000652 313  .B H'CB;SET 7,(HL) (Zilog)  pas d'équivalent direct 1re gen
 000653 376  .B H'FE
 000654 023  INC DE
 000655 030 351  JUMP. L_0198
    L_01AF:
 000657 176  LOAD A,(HL)
 000660 267  OR A,A
 000661 040 350  JUMP. NE,L_019B
 000663 032  LOAD A,(DE)
 000664 167  LOAD (HL),A
 000665 315 355 001 CALL L_01ED
 000670 076 043  LOAD A,#43
 000672 062 130 105 LOAD H'4558,A
 000675 043  INC HL
 000676 066 000  LOAD (HL),#0
 000700 053  DEC HL
 000701 030 347  JUMP. L_01AA
    L_01C3:
 000703 041 212 105 LOAD HL,#H'458A
 000706 124  LOAD D,H
 000707 135  LOAD E,L
    L_01C8:
 000710 023  INC DE
    L_01C9:
 000711 043  INC HL
 000712 176  LOAD A,(HL)
 000713 267  OR A,A
 000714 022  LOAD (DE),A
 000715 050 012  JUMP. EQ,L_01D9
 000717 313  .B H'CB;BIT 7,(HL) (Zilog)  pas d'équivalent direct 1re gen
 11/05/26 07:20:40  SYS.SR                                                       01-07



 000720 176  .B H'7E
 000721 313  .B H'CB;RES 7,(HL) (Zilog)  pas d'équivalent direct 1re gen
 000722 276  .B H'BE
 000723 176  LOAD A,(HL)
 000724 022  LOAD (DE),A
 000725 040 361  JUMP. NE,L_01C8
 000727 030 360  JUMP. L_01C9
    L_01D9:
 000731 052 174 105 LOAD HL,H'457C
 000734 053  DEC HL
 000735 313  .B H'CB;BIT 7,(HL) (Zilog)  pas d'équivalent direct 1re gen
 000736 176  .B H'7E
 000737 310  RET EQ
 000740 041 130 105 LOAD HL,#H'4558
 000743 176  LOAD A,(HL)
 000744 267  OR A,A
 000745 310  RET EQ
 000746 065  DEC (HL)
 000747 300  RET NE
 000750 066 003  LOAD (HL),#3
 000752 072 167 105 LOAD A,H'4577
    L_01ED:
 000755 345  PUSH HL
 000756 062 167 105 LOAD H'4577,A
 000761 107  LOAD B,A
 000762 052 174 105 LOAD HL,H'457C
 000765 176  LOAD A,(HL)
 000766 376 200  COMP A,#H'80
 000770 050 005  JUMP. EQ,L_01FF
 000772 160  LOAD (HL),B
 000773 043  INC HL
 000774 042 174 105 LOAD H'457C,HL
    L_01FF:
 000777 341  POP HL
 001000 311  RET

    MUL:
 001001 076 020  LOAD A,#20
    L_0203:
 001003 267  OR A,A
 001004 313  .B H'CB;BIT 0,E (Zilog)  pas d'équivalent direct 1re gen
 001005 103  .B H'43
 001006 050 001  JUMP. EQ,L_0209
 001010 011  ADD HL,BC
    L_0209:
 001011 313 034  RRC H
 001013 313 035  RRC L
 001015 313 032  RRC D
 001017 313 033  RRC E
 001021 075  DEC A
 001022 040 357  JUMP. NE,L_0203
 001024 311  RET

    DIV:
 001025 076 020  LOAD A,#20
 001027 345  PUSH HL
 001030 267  OR A,A
 001031 355 102  SUBC HL,BC
 001033 341  POP HL
 001034 060 022  JUMP. CC,L_0230
    L_021E:
 11/05/26 07:20:40  SYS.SR                                                       01-08



 001036 067  SETC
 001037 313 023  RLC E
 001041 313 022  RLC D
 001043 313 025  RLC L
 001045 313 024  RLC H
 001047 027  RLC A
 001050 355 102  SUBC HL,BC
 001052 313  .B H'CB;BIT 0,A (Zilog)  pas d'équivalent direct 1re gen
 001053 107  .B H'47
 001054 050 004  JUMP. EQ,L_0232
 001056 070 007  JUMP. CS,L_0237
    L_0230:
 001060 067  SETC
 001061 311  RET

    L_0232:
 001062 060 003  JUMP. CC,L_0237
 001064 011  ADD HL,BC
 001065 313  .B H'CB;RES 0,E (Zilog)  pas d'équivalent direct 1re gen
 001066 203  .B H'83
    L_0237:
 001067 313  .B H'CB;SRL A (Zilog)  pas de mnémonique 1re gen
 001070 077  .B H'3F
 001071 075  DEC A
 001072 040 342  JUMP. NE,L_021E
 001074 267  OR A,A
 001075 311  RET

    GETAR:
 001076 363  IOF
 001077 063  INC SP
 001100 063  INC SP
 001101 343  EX (SP),HL
 001102 136  LOAD E,(HL)
 001103 043  INC HL
 001104 126  LOAD D,(HL)
 001105 043  INC HL
 001106 343  EX (SP),HL
 001107 073  DEC SP
 001110 073  DEC SP
 001111 373  ION
 001112 311  RET

    SCAR:
 001113 305  PUSH BC
 001114 353  EX HL,DE
    L_024D:
 001115 106  LOAD B,(HL)
 001116 043  INC HL
 001117 004  INC B
 001120 005  DEC B
 001121 050 007  JUMP. EQ,L_025A
 001123 270  COMP A,B
 001124 050 005  JUMP. EQ,L_025B
 001126 043  INC HL
 001127 043  INC HL
 001130 030 363  JUMP. L_024D
    L_025A:
 001132 067  SETC
    L_025B:
 001133 353  EX HL,DE
 11/05/26 07:20:40  SYS.SR                                                       01-09



 001134 301  POP BC
 001135 311  RET

    JUMPC:
 001136 365  PUSH AF
 001137 347 062  .W ?SCAR
 001141 070 004  JUMP. CS,H'0267
 001143 361  POP AF
 001144 303 337 005 JUMP L_05DF
 001147 361  POP AF
 001150 311  RET

    BRANC:
 001151 345  PUSH HL
 001152 041 000 000 LOAD HL,#RST00
 001155 001 000 000 LOAD BC,#RST00
    L_0270:
 001160 321  POP DE
 001161 325  PUSH DE
 001162 076 252  LOAD A,#H'AA
 001164 355 261  CPIR
 001166 342 212 002 JUMP PO,L_028A
    L_0279:
 001171 032  LOAD A,(DE)
 001172 023  INC DE
 001173 276  COMP A,(HL)
 001174 043  INC HL
 001175 050 372  JUMP. EQ,L_0279
 001177 053  DEC HL
 001200 176  LOAD A,(HL)
 001201 376 200  COMP A,#H'80
 001203 040 353  JUMP. NE,L_0270
 001205 043  INC HL
    L_0286:
 001206 353  EX HL,DE
 001207 063  INC SP
 001210 063  INC SP
 001211 311  RET

    L_028A:
 001212 067  SETC
 001213 030 371  JUMP. L_0286
    MEM:
 001215 052 140 105 LOAD HL,MAXMEM
 001220 311  RET

    ITIME:
 001221 042 156 105 LOAD H'456E,HL
 001224 311  RET

    ITIMA:
 001225 042 160 105 LOAD H'4570,HL
 001230 311  RET

    IRTC:
 001231 042 162 105 LOAD H'4572,HL
 001234 311  RET

    INTUS:
 001235 042 136 105 LOAD H'455E,HL
 001240 311  RET
 11/05/26 07:20:40  SYS.SR                                                       01-10




    IRST1:
 001241 042 142 105 LOAD H'4562,HL
 001244 311  RET

    IRST2:
 001245 042 144 105 LOAD H'4564,HL
 001250 311  RET

    IRST7:
 001251 042 146 105 LOAD H'4566,HL
 001254 311  RET

    IRST5:
 001255 042 150 105 LOAD H'4568,HL
 001260 311  RET

    IRST6:
 001261 042 152 105 LOAD H'456A,HL
 001264 311  RET

    IADNM:
 001265 042 154 105 LOAD H'456C,HL
 001270 311  RET

    ENI50:
 001271 365  PUSH AF
 001272 267  OR A,A
 001273 072 177 105 LOAD A,LAMODI
 001276 313  .B H'CB;RES 0,A (Zilog)  pas d'équivalent direct 1re gen
 001277 207  .B H'87
 001300 050 002  JUMP. EQ,L_02C4
 001302 313  .B H'CB;SET 0,A (Zilog)  pas d'équivalent direct 1re gen
 001303 307  .B H'C7
    L_02C4:
 001304 062 177 105 LOAD LAMODI,A
 001307 323 000  LOAD $0,A
 001311 361  POP AF
 001312 311  RET

    CALPH:
 001313 041 377 104 LOAD HL,#H'44FF
    L_02CE:
 001316 066 040  LOAD (HL),#40
 001320 053  DEC HL
 001321 174  LOAD A,H
 001322 376 100  COMP A,#H'40
 001324 060 370  JUMP. CC,L_02CE
 001326 043  INC HL
 001327 076 000  LOAD A,#0
 001331 311  RET

    CGRA:
 001332 345  PUSH HL
 001333 041 000 106 LOAD HL,#SGRA
    L_02DE:
 001336 066 000  LOAD (HL),#0
 001340 043  INC HL
 001341 174  LOAD A,H
 001342 376 125  COMP A,#H'55
 001344 040 370  JUMP. NE,L_02DE
 11/05/26 07:20:40  SYS.SR                                                       01-11



 001346 341  POP HL
 001347 257  XOR A,A
 001350 311  RET

    IALPH:
 001351 365  PUSH AF
 001352 072 177 105 LOAD A,LAMODI
 001355 346 363  AND A,#H'F3
 001357 030 323  JUMP. L_02C4
    IGRA:
 001361 365  PUSH AF
 001362 072 177 105 LOAD A,LAMODI
 001365 313  .B H'CB;SET 3,A (Zilog)  pas d'équivalent direct 1re gen
 001366 337  .B H'DF
 001367 030 006  JUMP. L_02FF
    IAGRA:
 001371 365  PUSH AF
 001372 072 177 105 LOAD A,LAMODI
 001375 313  .B H'CB;RES 3,A (Zilog)  pas d'équivalent direct 1re gen
 001376 237  .B H'9F
    L_02FF:
 001377 313  .B H'CB;SET 2,A (Zilog)  pas d'équivalent direct 1re gen
 001400 327  .B H'D7
 001401 313  .B H'CB;SET 1,A (Zilog)  pas d'équivalent direct 1re gen
 001402 317  .B H'CF
 001403 070 277  JUMP. CS,L_02C4
 001405 313  .B H'CB;RES 1,A (Zilog)  pas d'équivalent direct 1re gen
 001406 217  .B H'8F
 001407 030 273  JUMP. L_02C4
    IDICA:
 001411 365  PUSH AF
 001412 345  PUSH HL
 001413 305  PUSH BC
 001414 325  PUSH DE
 001415 171  LOAD A,C
 001416 267  OR A,A
 001417 050 037  JUMP. EQ,L_0330
 001421 200  ADD A,B
 001422 376 025  COMP A,#25
 001424 060 032  JUMP. CC,L_0330
 001426 004  INC B
 001427 041 000 100 LOAD HL,#SALPHA
 001432 021 100 000 LOAD DE,#H'0040
    L_031D:
 001435 031  ADD HL,DE
 001436 020 375  DECJ,NE B,L_031D
 001440 267  OR A,A
 001441 355 122  SUBC HL,DE
 001443 042 170 105 LOAD H'4578,HL
 001446 042  .B 42;orphelin avant L_0327
    L_0327:
 001447 164  LOAD (HL),H
 001450 105  LOAD B,L
    L_0329:
 001451 031  ADD HL,DE
 001452 015  DEC C
 001453 040 374  JUMP. NE,L_0329
 001455 042 172 105 LOAD H'457A,HL
    L_0330:
 001460 321  POP DE
 001461 301  POP BC
 11/05/26 07:20:40  SYS.SR                                                       01-12



    L_0332:
 001462 341  POP HL
 001463 361  POP AF
 001464 311  RET

    IDIS:
 001465 365  PUSH AF
 001466 076 137  LOAD A,#H'5F
 001470 062 166 105 LOAD H'4576,A
 001473 006 000  LOAD B,#0
 001475 347 020  .W ?IDICA
 001477 347 122  .W ?CLEAR
 001501 347 021  .W ?IALPH
 001503 361  POP AF
 001504 311  RET

    IPOIN:
 001505 062 166 105 LOAD H'4576,A
 001510 311  RET

    SETCU:
 001511 365  PUSH AF
 001512 345  PUSH HL
 001513 313  .B H'CB;SLA L (Zilog)  pas de mnémonique 1re gen
 001514 045  .B H'25
 001515 313  .B H'CB;SLA L (Zilog)  pas de mnémonique 1re gen
 001516 045  .B H'25
 001517 174  LOAD A,H
    L_0350:
 001520 376 024  COMP A,#24
 001522 070 004  JUMP. CS,L_0358
 001524 326 024  SUB A,#24
 001526 030 370  JUMP. L_0350
    L_0358:
 001530 313  .B H'CB;SRL A (Zilog)  pas de mnémonique 1re gen
 001531 077  .B H'3F
 001532 313 035  RRC L
 001534 313  .B H'CB;SRL A (Zilog)  pas de mnémonique 1re gen
 001535 077  .B H'3F
 001536 313 035  RRC L
 001540 306 100  ADD A,#H'40
 001542 147  LOAD H,A
 001543 042 164 105 LOAD H'4574,HL
 001546 030 312  JUMP. L_0332
    L_0368:
 001550 365  PUSH AF
 001551 076 203  LOAD A,#H'83
 001553 347 076  .W ?BEEP
 001555 361  POP AF
 001556 311  RET

    BEEP:
 001557 363  IOF
 001560 305  PUSH BC
 001561 365  PUSH AF
 001562 346 007  AND A,#7
 001564 107  LOAD B,A
    L_0375:
 001565 016 040  LOAD C,#40
    L_0377:
 001567 361  POP AF
 11/05/26 07:20:40  SYS.SR                                                       01-13



 001570 365  PUSH AF
 001571 074  INC A
 001572 050 002  JUMP. EQ,L_037E
 001574 323 003  LOAD $3,A
    L_037E:
 001576 075  DEC A
 001577 040 375  JUMP. NE,L_037E
 001601 015  DEC C
 001602 040 363  JUMP. NE,L_0377
 001604 020 357  DECJ,NE B,L_0375
 001606 361  POP AF
 001607 301  POP BC
 001610 373  ION
 001611 311  RET

    L_038A:
 001612 347 076  .W ?BEEP
 001614 361  POP AF
    PLAY:
 001615 365  PUSH AF
 001616 176  LOAD A,(HL)
 001617 043  INC HL
 001620 267  OR A,A
 001621 040 367  JUMP. NE,L_038A
 001623 361  POP AF
 001624 311  RET

    EFECR:
 001625 325  PUSH DE
 001626 345  PUSH HL
 001627 355 133 164 105 LOAD DE,H'4574
 001633 315 245 003 CALL L_03A5
 001636 341  POP HL
 001637 321  POP DE
 001640 311  RET

    L_03A1:
 001641 355 133 170 105 LOAD DE,H'4578
    L_03A5:
 001645 052 172 105 LOAD HL,H'457A
 001650 257  XOR A,A
    L_03A9:
 001651 315 306 003 CALL L_03C6
 001654 066 040  LOAD (HL),#40
 001656 310  RET EQ
 001657 030 370  JUMP. L_03A9
    L_03B1:
 001661 043  INC HL
    L_03B2:
 001662 355 133 172 105 LOAD DE,H'457A
 001666 315 117 016 CALL L_0E4F
 001671 310  RET EQ
 001672 330  RET CS
 001673 021 000 105 LOAD DE,#ENDALP
 001676 315 117 016 CALL L_0E4F
 001701 330  RET CS
 001702 052 170 105 LOAD HL,H'4578
 001705 311  RET

    L_03C6:
 001706 053  DEC HL
 11/05/26 07:20:40  SYS.SR                                                       01-14



    L_03C7:
 001707 315 117 016 CALL L_0E4F
 001712 310  RET EQ
 001713 325  PUSH DE
 001714 021 000 100 LOAD DE,#SALPHA
 001717 315 117 016 CALL L_0E4F
 001722 321  POP DE
 001723 311  RET

    L_03D4:
 001724 076 040  LOAD A,#40
 001726 315 307 003 CALL L_03C7
 001731 310  RET EQ
 001732 315 306 003 CALL L_03C6
 001735 310  RET EQ
 001736 276  COMP A,(HL)
 001737 300  RET NE
    L_03E0:
 001740 315 306 003 CALL L_03C6
 001743 310  RET EQ
 001744 276  COMP A,(HL)
 001745 050 371  JUMP. EQ,L_03E0
 001747 043  INC HL
 001750 311  RET

    L_03E9:
 001751 315 150 003 CALL L_0368
    L_03EC:
 001754 257  XOR A,A
 001755 311  RET

    L_03EE:
 001756 355 133 170 105 LOAD DE,H'4578
 001762 315 324 003 CALL L_03D4
 001765 030 365  JUMP. L_03EC
    L_03F7:
 001767 005  DEC B
    L_03F8:
 001770 315 261 003 CALL L_03B1
 001773 050 004  JUMP. EQ,L_0401
 001775 175  LOAD A,L
 001776 240  AND A,B
 001777 040 367  JUMP. NE,L_03F8
    L_0401:
 002001 004  INC B
 002002 030 350  JUMP. L_03EC
    L_0404:
 002004 365  PUSH AF
 002005 305  PUSH BC
 002006 325  PUSH DE
 002007 052 172 105 LOAD HL,H'457A
 002012 345  PUSH HL
 002013 021 100 000 LOAD DE,#H'0040
 002016 267  OR A,A
 002017 355 122  SUBC HL,DE
 002021 355 133 170 105 LOAD DE,H'4578
 002025 267  OR A,A
 002026 355 122  SUBC HL,DE
 002030 050 011  JUMP. EQ,L_0423
 002032 104  LOAD B,H
 002033 115  LOAD C,L
 11/05/26 07:20:40  SYS.SR                                                       01-15



 002034 041 100 000 LOAD HL,#H'0040
 002037 031  ADD HL,DE
 002040 355 260  LDIR
 002042 353  EX HL,DE
    L_0423:
 002043 006 100  LOAD B,#H'40
 002045 341  POP HL
    L_0426:
 002046 053  DEC HL
 002047 066 040  LOAD (HL),#40
 002051 020 373  DECJ,NE B,L_0426
    L_042B:
 002053 321  POP DE
 002054 301  POP BC
    L_042D:
 002055 361  POP AF
 002056 311  RET

    DICAR:
 002057 365  PUSH AF
 002060 305  PUSH BC
 002061 325  PUSH DE
 002062 345  PUSH HL
 002063 052 120 105 LOAD HL,OUTCAR
 002066 107  LOAD B,A
 002067 175  LOAD A,L
 002070 264  OR A,H
 002071 170  LOAD A,B
 002072 050 005  JUMP. EQ,L_0441
 002074 021 215 004 LOAD DE,#H'048D
 002077 325  PUSH DE
 002100 351  JUMP (HL)
    L_0441:
 002101 052 164 105 LOAD HL,H'4574
 002104 066 040  LOAD (HL),#40
 002106 376 007  COMP A,#7
 002110 314 351 003 CALL EQ,L_03E9
 002113 376 002  COMP A,#2
 002115 314 241 003 CALL EQ,L_03A1
 002120 345  PUSH HL
 002121 041 112 105 LOAD HL,#H'454A
 002124 376 005  COMP A,#5
 002126 314 264 013 CALL EQ,L_0BB4
 002131 376 004  COMP A,#4
 002133 314 270 013 CALL EQ,L_0BB8
 002136 341  POP HL
 002137 376 010  COMP A,#10
 002141 314 356 003 CALL EQ,L_03EE
 002144 006 010  LOAD B,#10
 002146 376 011  COMP A,#11
 002150 314 367 003 CALL EQ,L_03F7
 002153 006 100  LOAD B,#H'40
 002155 376 015  COMP A,#15
 002157 314 367 003 CALL EQ,L_03F7
 002162 376 012  COMP A,#12
 002164 314 266 004 CALL EQ,L_04B6
 002167 267  OR A,A
 002170 050 012  JUMP. EQ,L_0484
 002172 315 366 014 CALL L_0CF6
 002175 352 202 004 JUMP PE,L_0482
 002200 356 200  XOR A,#H'80
 11/05/26 07:20:40  SYS.SR                                                       01-16



    L_0482:
 002202 167  LOAD (HL),A
 002203 043  INC HL
    L_0484:
 002204 315 262 003 CALL L_03B2
 002207 314 004 004 CALL EQ,L_0404
 002212 042 164 105 LOAD H'4574,HL
 002215 341  POP HL
 002216 030 233  JUMP. L_042B
    DITEX:
 002220 365  PUSH AF
    L_0491:
 002221 176  LOAD A,(HL)
 002222 043  INC HL
 002223 267  OR A,A
    L_0494:
 002224 050 227  JUMP. EQ,L_042D
 002226 347 000  .W ?DICAR
 002230 030 367  JUMP. L_0491
    TEXT:
 002232 042 272 105 LOAD H'45BA,HL
 002235 353  EX HL,DE
 002236 347 117  .W ?GETAR
 002240 353  EX HL,DE
 002241 347 006  .W ?DITEX
 002243 052 272 105 LOAD HL,H'45BA
 002246 311  RET

    TEXTI:
 002247 343  EX (SP),HL
 002250 347 006  .W ?DITEX
 002252 343  EX (SP),HL
 002253 311  RET

    DITEB:
 002254 365  PUSH AF
    L_04AD:
 002255 176  LOAD A,(HL)
 002256 043  INC HL
 002257 270  COMP A,B
 002260 050 342  JUMP. EQ,L_0494
 002262 347 000  .W ?DICAR
 002264 030 367  JUMP. L_04AD
    L_04B6:
 002266 345  PUSH HL
 002267 052 164 105 LOAD HL,H'4574
    L_04BA:
 002272 175  LOAD A,L
 002273 346 077  AND A,#77
 002275 376 077  COMP A,#77
 002277 050 005  JUMP. EQ,L_04C6
 002301 043  INC HL
 002302 066 040  LOAD (HL),#40
 002304 030 364  JUMP. L_04BA
    L_04C6:
 002306 341  POP HL
 002307 257  XOR A,A
 002310 311  RET

    GETCA:
 002311 305  PUSH BC
 11/05/26 07:20:40  SYS.SR                                                       01-17



 002312 325  PUSH DE
 002313 345  PUSH HL
 002314 052 122 105 LOAD HL,INCAR
 002317 175  LOAD A,L
 002320 264  OR A,H
 002321 050 005  JUMP. EQ,L_04D8
 002323 021 375 004 LOAD DE,#L_04FD
 002326 325  PUSH DE
 002327 351  JUMP (HL)
    L_04D8:
 002330 052 164 105 LOAD HL,H'4574
 002333 072 166 105 LOAD A,H'4576
 002336 167  LOAD (HL),A
    L_04DF:
 002337 315 001 005 CALL L_0501
 002342 050 373  JUMP. EQ,L_04DF
 002344 345  PUSH HL
 002345 052 164 105 LOAD HL,H'4574
 002350 066 040  LOAD (HL),#40
 002352 341  POP HL
 002353 365  PUSH AF
    L_04EC:
 002354 361  POP AF
 002355 104  LOAD B,H
 002356 115  LOAD C,L
 002357 052 174 105 LOAD HL,H'457C
 002362 053  DEC HL
 002363 042 174 105 LOAD H'457C,HL
 002366 142  LOAD H,D
 002367 153  LOAD L,E
 002370 176  LOAD A,(HL)
 002371 043  INC HL
 002372 355 260  LDIR
 002374 267  OR A,A
    L_04FD:
 002375 341  POP HL
    L_04FE:
 002376 321  POP DE
 002377 301  POP BC
 002400 311  RET

    L_0501:
 002401 021 226 105 LOAD DE,#H'4596
 002404 052 174 105 LOAD HL,H'457C
 002407 176  LOAD A,(HL)
 002410 376 200  COMP A,#H'80
 002412 040 004  JUMP. NE,L_0510
 002414 053  DEC HL
 002415 042 174 105 LOAD H'457C,HL
    L_0510:
 002420 267  OR A,A
 002421 355 122  SUBC HL,DE
 002423 311  RET

    IFCAR:
 002424 305  PUSH BC
 002425 325  PUSH DE
 002426 345  PUSH HL
 002427 365  PUSH AF
 002430 315 001 005 CALL L_0501
 002433 040 317  JUMP. NE,L_04EC
 11/05/26 07:20:40  SYS.SR                                                       01-18



 002435 361  POP AF
 002436 067  SETC
 002437 030 334  JUMP. L_04FD
    GETFO:
 002441 072 176 105 LOAD A,H'457E
 002444 267  OR A,A
 002445 311  RET

    GETLI:
 002446 305  PUSH BC
 002447 325  PUSH DE
 002450 001 015 000 LOAD BC,#H'000D
 002453 021 377 016 LOAD DE,#GJOUR_HND
 002456 315 063 005 CALL L_0533
 002461 030 313  JUMP. L_04FE
    L_0533:
 002463 041 300 105 LOAD HL,#BUFLIN
    L_0536:
 002466 347 001  .W ?GETCA
 002470 347 000  .W ?DICAR
 002472 376 010  COMP A,#10
 002474 050 043  JUMP. EQ,L_0561
 002476 376 177  COMP A,#H'7F
 002500 050 051  JUMP. EQ,L_056B
 002502 270  COMP A,B
 002503 070 031  JUMP. CS,L_055E
 002505 271  COMP A,C
 002506 070 006  JUMP. CS,L_054E
 002510 272  COMP A,D
 002511 070 023  JUMP. CS,L_055E
 002513 273  COMP A,E
 002514 060 020  JUMP. CC,L_055E
    L_054E:
 002516 167  LOAD (HL),A
 002517 043  INC HL
 002520 043  INC HL
 002521 176  LOAD A,(HL)
 002522 053  DEC HL
 002523 376 200  COMP A,#H'80
 002525 040 337  JUMP. NE,L_0536
 002527 067  SETC
    L_0558:
 002530 066 000  LOAD (HL),#0
 002532 041 300 105 LOAD HL,#BUFLIN
 002535 311  RET

    L_055E:
 002536 267  OR A,A
 002537 030 367  JUMP. L_0558
    L_0561:
 002541 325  PUSH DE
 002542 021 300 105 LOAD DE,#BUFLIN
 002545 315 324 003 CALL L_03D4
 002550 321  POP DE
 002551 030 313  JUMP. L_0536
    L_056B:
 002553 347 043  .W ?RETUR
 002555 030 304  JUMP. L_0533
 002557 000  NOP
 002560 000  NOP
 002561 000  NOP
 11/05/26 07:20:40  SYS.SR                                                       01-19



 002562 100  LOAD B,B
 002563 316 047  ADDC A,#47
    L_0575:
 002565 006 006  LOAD B,#6
 002567 041 157 005 LOAD HL,#H'056F
 002572 355 263  OUTIR
 002574 311  RET

    RPR:
 002575 305  PUSH BC
 002576 016 005  LOAD C,#5
 002600 030 010  JUMP. L_058A
    RMOD:
 002602 305  PUSH BC
 002603 016 007  LOAD C,#7
 002605 030 003  JUMP. L_058A
    RPAR:
 002607 305  PUSH BC
 002610 016 003  LOAD C,#3
    L_058A:
 002612 355 170  LOAD A,$(C);?? IN r,(C)  vérifier syntaxe CALM
 002614 346 002  AND A,#2
 002616 050 372  JUMP. EQ,L_058A
    L_0590:
 002620 015  DEC C
 002621 355 170  LOAD A,$(C);?? IN r,(C)  vérifier syntaxe CALM
 002623 030 056  JUMP. L_05C3
    IFRPR:
 002625 305  PUSH BC
 002626 016 005  LOAD C,#5
 002630 030 010  JUMP. L_05A2
    IFRMO:
 002632 305  PUSH BC
 002633 016 007  LOAD C,#7
 002635 030 003  JUMP. L_05A2
    IFRPA:
 002637 305  PUSH BC
 002640 016 003  LOAD C,#3
    L_05A2:
 002642 355 170  LOAD A,$(C);?? IN r,(C)  vérifier syntaxe CALM
 002644 346 002  AND A,#2
 002646 040 350  JUMP. NE,L_0590
    L_05A8:
 002650 067  SETC
 002651 301  POP BC
 002652 311  RET

    WPP:
 002653 305  PUSH BC
 002654 016 005  LOAD C,#5
 002656 030 010  JUMP. L_05B8
    WMOD:
 002660 305  PUSH BC
 002661 016 007  LOAD C,#7
 002663 030 003  JUMP. L_05B8
    WPAR:
 002665 305  PUSH BC
 002666 016 003  LOAD C,#3
    L_05B8:
 002670 365  PUSH AF
    L_05B9:
 11/05/26 07:20:40  SYS.SR                                                       01-20



 002671 355 170  LOAD A,$(C);?? IN r,(C)  vérifier syntaxe CALM
 002673 346 001  AND A,#1
 002675 050 372  JUMP. EQ,L_05B9
    L_05BF:
 002677 361  POP AF
 002700 015  DEC C
 002701 355 171  LOAD $(C),A;?? OUT (C),r  vérifier syntaxe CALM
    L_05C3:
 002703 301  POP BC
 002704 267  OR A,A
 002705 323 003  LOAD $3,A
 002707 311  RET

    IFWPP:
 002710 305  PUSH BC
 002711 016 005  LOAD C,#5
 002713 030 010  JUMP. L_05D5
    IFWMO:
 002715 305  PUSH BC
 002716 016 007  LOAD C,#7
 002720 030 003  JUMP. L_05D5
    IFWPA:
 002722 305  PUSH BC
 002723 016 003  LOAD C,#3
    L_05D5:
 002725 365  PUSH AF
 002726 355 170  LOAD A,$(C);?? IN r,(C)  vérifier syntaxe CALM
 002730 346 001  AND A,#1
 002732 040 343  JUMP. NE,L_05BF
 002734 361  POP AF
 002735 030 311  JUMP. L_05A8
    L_05DF:
 002737 063  INC SP
 002740 063  INC SP
    CALLI:
 002741 345  PUSH HL
 002742 353  EX HL,DE
 002743 136  LOAD E,(HL)
 002744 043  INC HL
 002745 126  LOAD D,(HL)
 002746 043  INC HL
 002747 353  EX HL,DE
 002750 343  EX (SP),HL
 002751 311  RET

    GETCU:
 002752 052 164 105 LOAD HL,H'4574
 002755 176  LOAD A,(HL)
 002756 365  PUSH AF
 002757 174  LOAD A,H
 002760 326 100  SUB A,#H'40
 002762 313  .B H'CB;SLA L (Zilog)  pas de mnémonique 1re gen
 002763 045  .B H'25
 002764 027  RLC A
 002765 313  .B H'CB;SLA L (Zilog)  pas de mnémonique 1re gen
 002766 045  .B H'25
 002767 027  RLC A
 002770 147  LOAD H,A
 002771 313  .B H'CB;SRL L (Zilog)  pas de mnémonique 1re gen
 002772 075  .B H'3D
 002773 313  .B H'CB;SRL L (Zilog)  pas de mnémonique 1re gen
 11/05/26 07:20:40  SYS.SR                                                       01-21



 002774 075  .B H'3D
 002775 361  POP AF
 002776 311  RET

 002777 101  LOAD B,C
 003000 303 276 007 JUMP L_07BE
 003003 303 314 007 JUMP L_07CC
 003006 303 330 007 JUMP L_07D8
 003011 303 343 007 JUMP L_07E3
 003014 303 353 006 JUMP L_06EB
 003017 303 142 006 JUMP L_0662
 003022 303 323 006 JUMP L_06D3
 003025 303 033 006 JUMP L_061B
 003030 303 120 006 JUMP L_0650
    L_061B:
 003033 345  PUSH HL
 003034 325  PUSH DE
 003035 305  PUSH BC
 003036 365  PUSH AF
 003037 315 073 006 CALL L_063B
 003042 353  EX HL,DE
    L_0623:
 003043 315 073 006 CALL L_063B
 003046 332 307 007 JUMP CS,L_07C7
 003051 315 142 006 CALL L_0662
 003054 315 356 006 CALL L_06EE
 003057 030 362  JUMP. L_0623
    L_0631:
 003061 067  SETC
 003062 311  RET

    L_0633:
 003063 335 176 000 LOAD A,(IX)
 003066 335 043  INC IX
 003070 315 353 006 CALL L_06EB
    L_063B:
 003073 335 176 000 LOAD A,(IX)
 003076 335 043  INC IX
 003100 376 377  COMP A,#H'FF
 003102 050 355  JUMP. EQ,L_0631
 003104 376 376  COMP A,#H'FE
 003106 050 353  JUMP. EQ,L_0633
 003110 147  LOAD H,A
 003111 335 156 000 LOAD L,(IX)
 003114 335 043  INC IX
 003116 267  OR A,A
 003117 311  RET

    L_0650:
 003120 345  PUSH HL
 003121 325  PUSH DE
 003122 305  PUSH BC
 003123 365  PUSH AF
    L_0654:
 003124 315 073 006 CALL L_063B
 003127 332 307 007 JUMP CS,L_07C7
 003132 315 323 006 CALL L_06D3
 003135 315 356 006 CALL L_06EE
 003140 030 362  JUMP. L_0654
    L_0662:
 003142 325  PUSH DE
 11/05/26 07:20:40  SYS.SR                                                       01-22



 003143 173  LOAD A,E
 003144 275  COMP A,L
 003145 040 011  JUMP. NE,L_0670
 003147 172  LOAD A,D
 003150 274  COMP A,H
 003151 040 005  JUMP. NE,L_0670
 003153 315 364 006 CALL L_06F4
 003156 321  POP DE
 003157 311  RET

    L_0670:
 003160 016 024  LOAD C,#24
 003162 006 034  LOAD B,#34
 003164 174  LOAD A,H
 003165 222  SUB A,D
 003166 060 003  JUMP. CC,L_067B
 003170 355 104  NEG A
 003172 014  INC C
    L_067B:
 003173 147  LOAD H,A
 003174 175  LOAD A,L
 003175 223  SUB A,E
 003176 060 003  JUMP. CC,L_0683
 003200 355 104  NEG A
 003202 004  INC B
    L_0683:
 003203 157  LOAD L,A
 003204 124  LOAD D,H
 003205 135  LOAD E,L
 003206 171  LOAD A,C
 003207 062 270 105 LOAD H'45B8,A
 003212 172  LOAD A,D
 003213 223  SUB A,E
 003214 060 006  JUMP. CC,L_0694
 003216 125  LOAD D,L
 003217 134  LOAD E,H
 003220 170  LOAD A,B
 003221 062 270 105 LOAD H'45B8,A
    L_0694:
 003224 355 103 272 105 LOAD H'45BA,BC
 003230 102  LOAD B,D
 003231 143  LOAD H,E
 003232 170  LOAD A,B
 003233 224  SUB A,H
 003234 070 002  JUMP. CS,L_06A0
 003236 355 104  NEG A
    L_06A0:
 003240 157  LOAD L,A
 003241 321  POP DE
 003242 315 364 006 CALL L_06F4
 003245 170  LOAD A,B
 003246 313  .B H'CB;SRL A (Zilog)  pas de mnémonique 1re gen
 003247 077  .B H'3F
 003250 205  ADD A,L
 003251 070 021  JUMP. CS,L_06BC
 003253 365  PUSH AF
 003254 257  XOR A,A
 003255 275  COMP A,L
 003256 050 031  JUMP. EQ,L_06C9
 003260 361  POP AF
    L_06B1:
 11/05/26 07:20:40  SYS.SR                                                       01-23



 003261 315 270 105 CALL H'45B8
 003264 315 364 006 CALL L_06F4
 003267 204  ADD A,H
 003270 005  DEC B
 003271 310  RET EQ
 003272 060 365  JUMP. CC,L_06B1
    L_06BC:
 003274 315 272 105 CALL H'45BA
 003277 315 364 006 CALL L_06F4
 003302 205  ADD A,L
 003303 005  DEC B
 003304 310  RET EQ
 003305 060 352  JUMP. CC,L_06B1
 003307 030 363  JUMP. L_06BC
    L_06C9:
 003311 361  POP AF
    L_06CA:
 003312 315 272 105 CALL H'45BA
 003315 315 364 006 CALL L_06F4
 003320 020 370  DECJ,NE B,L_06CA
 003322 311  RET

    L_06D3:
 003323 325  PUSH DE
 003324 016 024  LOAD C,#24
 003326 006 034  LOAD B,#34
 003330 174  LOAD A,H
 003331 267  OR A,A
 003332 362 340 006 JUMP PL,L_06E0
 003335 346 177  AND A,#H'7F
 003337 014  INC C
    L_06E0:
 003340 147  LOAD H,A
 003341 175  LOAD A,L
 003342 267  OR A,A
 003343 362 203 006 JUMP PL,L_0683
 003346 346 177  AND A,#H'7F
 003350 004  INC B
 003351 030 230  JUMP. L_0683
    L_06EB:
 003353 062 276 105 LOAD H'45BE,A
    L_06EE:
 003356 076 002  LOAD A,#2
 003360 062 275 105 LOAD H'45BD,A
 003363 311  RET

    L_06F4:
 003364 345  PUSH HL
 003365 325  PUSH DE
 003366 305  PUSH BC
 003367 365  PUSH AF
 003370 072 275 105 LOAD A,H'45BD
 003373 107  LOAD B,A
 003374 072 276 105 LOAD A,H'45BE
 003377 267  OR A,A
 003400 050 032  JUMP. EQ,L_071C
 003402 075  DEC A
 003403 312 302 007 JUMP EQ,L_07C2
 003406 075  DEC A
 003407 050 063  JUMP. EQ,L_073C
 003411 075  DEC A
 11/05/26 07:20:40  SYS.SR                                                       01-24



 003412 050 076  JUMP. EQ,L_074A
 003414 075  DEC A
 003415 050 105  JUMP. EQ,L_0754
 003417 075  DEC A
 003420 050 113  JUMP. EQ,L_075D
 003422 075  DEC A
 003423 050 144  JUMP. EQ,L_0779
    L_0715:
 003425 170  LOAD A,B
 003426 062 275 105 LOAD H'45BD,A
 003431 303 307 007 JUMP L_07C7
    L_071C:
 003434 034  INC E
 003435 315 314 007 CALL L_07CC
 003440 025  DEC D
 003441 315 314 007 CALL L_07CC
 003444 035  DEC E
 003445 315 314 007 CALL L_07CC
 003450 035  DEC E
 003451 315 314 007 CALL L_07CC
 003454 024  INC D
 003455 315 314 007 CALL L_07CC
 003460 024  INC D
 003461 315 314 007 CALL L_07CC
 003464 034  INC E
 003465 315 314 007 CALL L_07CC
 003470 034  INC E
 003471 303 320 007 JUMP L_07D0
    L_073C:
 003474 315 276 007 CALL L_07BE
 003477 024  INC D
 003500 315 276 007 CALL L_07BE
 003503 034  INC E
 003504 315 276 007 CALL L_07BE
 003507 025  DEC D
 003510 030 170  JUMP. L_07C2
    L_074A:
 003512 004  INC B
 003513 170  LOAD A,B
 003514 037  RRC A
 003515 060 306  JUMP. CC,L_0715
 003517 315 276 007 CALL L_07BE
 003522 030 301  JUMP. L_0715
    L_0754:
 003524 020 004  DECJ,NE B,L_075A
 003526 006 005  LOAD B,#5
 003530 030 273  JUMP. L_0715
    L_075A:
 003532 170  LOAD A,B
 003533 030 021  JUMP. L_076E
    L_075D:
 003535 020 004  DECJ,NE B,L_0763
 003537 006 016  LOAD B,#16
 003541 030 262  JUMP. L_0715
    L_0763:
 003543 170  LOAD A,B
 003544 075  DEC A
 003545 050 256  JUMP. EQ,L_0715
 003547 075  DEC A
 003550 050 253  JUMP. EQ,L_0715
 003552 075  DEC A
 11/05/26 07:20:40  SYS.SR                                                       01-25



 003553 075  DEC A
 003554 050 247  JUMP. EQ,L_0715
    L_076E:
 003556 075  DEC A
 003557 050 244  JUMP. EQ,L_0715
 003561 075  DEC A
 003562 050 241  JUMP. EQ,L_0715
 003564 315 276 007 CALL L_07BE
 003567 030 234  JUMP. L_0715
    L_0779:
 003571 020 030  DECJ,NE B,L_0793
 003573 006 004  LOAD B,#4
 003575 315 276 007 CALL L_07BE
 003600 035  DEC E
 003601 315 276 007 CALL L_07BE
 003604 034  INC E
 003605 025  DEC D
 003606 315 276 007 CALL L_07BE
 003611 024  INC D
 003612 024  INC D
 003613 315 276 007 CALL L_07BE
 003616 025  DEC D
 003617 034  INC E
 003620 315 276 007 CALL L_07BE
    L_0793:
 003623 030 200  JUMP. L_0715
    L_0795:
 003625 172  LOAD A,D
 003626 376 170  COMP A,#H'78
 003630 070 002  JUMP. CS,L_079C
 003632 026 167  LOAD D,#H'77
    L_079C:
 003634 257  XOR A,A
 003635 107  LOAD B,A
 003636 313  .B H'CB;SRL D (Zilog)  pas de mnémonique 1re gen
 003637 072  .B H'3A
 003640 027  RLC A
 003641 313  .B H'CB;SRL D (Zilog)  pas de mnémonique 1re gen
 003642 072  .B H'3A
 003643 313 033  RRC E
 003645 027  RLC A
 003646 313  .B H'CB;SRL D (Zilog)  pas de mnémonique 1re gen
 003647 072  .B H'3A
 003650 313 033  RRC E
 003652 027  RLC A
 003653 117  LOAD C,A
 003654 041 266 007 LOAD HL,#H'07B6
 003657 011  ADD HL,BC
 003660 176  LOAD A,(HL)
 003661 041 000 106 LOAD HL,#SGRA
 003664 031  ADD HL,DE
 003665 311  RET

 003666 200  ADD A,B
 003667 040 100  JUMP. NE,L_07F9
 003671 020 010  DECJ,NE B,L_07C3
 003673 002  LOAD (BC),A
 003674 004  INC B
 003675 001  .B 1;orphelin avant L_07BE
    L_07BE:
 003676 345  PUSH HL
 11/05/26 07:20:40  SYS.SR                                                       01-26



 003677 325  PUSH DE
 003700 305  PUSH BC
 003701 365  PUSH AF
    L_07C2:
 003702 315  .B H'CD;orphelin avant L_07C3
    L_07C3:
 003703 225  SUB A,L
 003704 007  RL A
 003705 266  OR A,(HL)
 003706 167  LOAD (HL),A
    L_07C7:
 003707 361  POP AF
    L_07C8:
 003710 301  POP BC
 003711 321  POP DE
 003712 341  POP HL
 003713 311  RET

    L_07CC:
 003714 345  PUSH HL
 003715 325  PUSH DE
 003716 305  PUSH BC
 003717 365  PUSH AF
    L_07D0:
 003720 315 225 007 CALL L_0795
 003723 057  CPL A
 003724 246  AND A,(HL)
 003725 167  LOAD (HL),A
 003726 030 357  JUMP. L_07C7
    L_07D8:
 003730 345  PUSH HL
 003731 325  PUSH DE
 003732 305  PUSH BC
 003733 365  PUSH AF
 003734 315 225 007 CALL L_0795
 003737 256  XOR A,(HL)
 003740 167  LOAD (HL),A
 003741 030 344  JUMP. L_07C7
    L_07E3:
 003743 345  PUSH HL
 003744 325  PUSH DE
 003745 305  PUSH BC
 003746 315 225 007 CALL L_0795
 003751 246  AND A,(HL)
 003752 030 334  JUMP. L_07C8
 003754 115  LOAD C,L
 003755 117  LOAD C,A
 003756 116  LOAD C,(HL)
 003757 040 062  JUMP. NE,L_0823
 003761 055  DEC L
 003762 062 000 110 LOAD H'4800,A
 003765 105  LOAD B,L
 003766 130  LOAD E,B
 003767 101  LOAD B,C
 003770 000  NOP
    L_07F9:
 003771 102  LOAD B,D
 003772 117  LOAD C,A
 003773 117  LOAD C,A
 003774 124  LOAD D,H
 003775 145  LOAD H,L
 11/05/26 07:20:40  SYS.SR                                                       01-27



 003776 040 141  JUMP. NE,L_0861
 004000 303 101 011 JUMP L_0941
 004003 303 115 011 JUMP L_094D
 004006 303 141 012 JUMP L_0A61
 004011 303 037 001 JUMP L_011F
 004014 303 101 011 JUMP L_0941
 004017 347 032  .W ?BUZZ
 004021 311  RET

 004022 347 032  .W ?BUZZ
 004024 311  RET

 004025 347 032  .W ?BUZZ
 004027 311  RET

 004030 303 334 013 JUMP L_0BDC
 004033 303 225 000 JUMP L_0095
 004036 303 145 011 JUMP L_0965
 004041 303  .B H'C3;orphelin avant 0822
 004042 325  PUSH DE
    L_0823:
 004043 013  DEC BC
    COMPT:
 004044 305  PUSH BC
 004045 016 000  LOAD C,#0
 004047 353  EX HL,DE
    L_0828:
 004050 032  LOAD A,(DE)
 004051 023  INC DE
 004052 276  COMP A,(HL)
 004053 043  INC HL
 004054 050 010  JUMP. EQ,L_0836
 004056 070 004  JUMP. CS,L_0834
 004060 016 200  LOAD C,#H'80
 004062 030 002  JUMP. L_0836
    L_0834:
 004064 016 100  LOAD C,#H'40
    L_0836:
 004066 020 360  DECJ,NE B,L_0828
 004070 313  .B H'CB;SLA C (Zilog)  pas de mnémonique 1re gen
 004071 041  .B H'21
 004072 353  EX HL,DE
 004073 301  POP BC
 004074 311  RET

    ALGRA:
 004075 365  PUSH AF
 004076 345  PUSH HL
 004077 044  INC H
 004100 174  LOAD A,H
 004101 051  ADD HL,HL
 004102 204  ADD A,H
 004103 147  LOAD H,A
 004104 051  ADD HL,HL
 004105 045  DEC H
 004106 353  EX HL,DE
 004107 341  POP HL
 004110 361  POP AF
 004111 311  RET

    GRAAL:
 11/05/26 07:20:40  SYS.SR                                                       01-28



 004112 365  PUSH AF
 004113 305  PUSH BC
 004114 325  PUSH DE
 004115 001 006 000 LOAD BC,#H'0006
 004120 150  LOAD L,B
 004121 140  LOAD H,B
 004122 347 060  .W ?DIV
 004124 142  LOAD H,D
 004125 321  POP DE
 004126 153  LOAD L,E
 004127 313  .B H'CB;SRL L (Zilog)  pas de mnémonique 1re gen
 004130 075  .B H'3D
 004131 313  .B H'CB;SRL L (Zilog)  pas de mnémonique 1re gen
 004132 075  .B H'3D
 004133 301  POP BC
 004134 361  POP AF
 004135 311  RET

    L_085E:
 004136 365  PUSH AF
 004137 174  LOAD A,H
 004140 267  OR A,A
    L_0861:
 004141 037  RRC A
 004142 365  PUSH AF
 004143 267  OR A,A
 004144 347 072  .W ?AFOCA
 004146 361  POP AF
 004147 175  LOAD A,L
 004150 347 072  .W ?AFOCA
 004152 361  POP AF
 004153 311  RET

    L_086C:
 004154 267  OR A,A
    AFOCA:
 004155 365  PUSH AF
 004156 305  PUSH BC
 004157 006 003  LOAD B,#3
    L_0871:
 004161 027  RLC A
 004162 027  RLC A
 004163 027  RLC A
 004164 365  PUSH AF
 004165 346 007  AND A,#7
 004167 306 060  ADD A,#60
 004171 347 000  .W ?DICAR
 004173 361  POP AF
 004174 020 363  DECJ,NE B,L_0871
    L_087E:
 004176 301  POP BC
 004177 361  POP AF
 004200 311  RET

    AFBA:
 004201 365  PUSH AF
 004202 305  PUSH BC
 004203 117  LOAD C,A
 004204 006 010  LOAD B,#10
    L_0886:
 004206 257  XOR A,A
 11/05/26 07:20:40  SYS.SR                                                       01-29



 004207 313 021  RLC C
 004211 316 060  ADDC A,#60
 004213 347 000  .W ?DICAR
 004215 020 367  DECJ,NE B,L_0886
 004217 030 355  JUMP. L_087E
    AFHEX:
 004221 365  PUSH AF
    L_0892:
 004222 305  PUSH BC
 004223 107  LOAD B,A
 004224 007  RL A
 004225 007  RL A
 004226 007  RL A
 004227 007  RL A
 004230 315 241 010 CALL L_08A1
 004233 170  LOAD A,B
 004234 315 241 010 CALL L_08A1
 004237 030 335  JUMP. L_087E
    L_08A1:
 004241 346 017  AND A,#17
 004243 306 060  ADD A,#60
 004245 376 072  COMP A,#72
 004247 070 002  JUMP. CS,L_08AB
 004251 306 007  ADD A,#7
    L_08AB:
 004253 347 000  .W ?DICAR
 004255 311  RET

    AFXHL:
 004256 365  PUSH AF
 004257 174  LOAD A,H
 004260 347 071  .W ?AFHEX
 004262 175  LOAD A,L
 004263 030 335  JUMP. L_0892
    INDEC:
 004265 001  .B 1;orphelin avant 08B6
 004266 072  .B 72;orphelin avant L_08B7
    L_08B7:
 004267 060  .B 60;orphelin avant L_08B8
    L_08B8:
 004270 325  PUSH DE
 004271 021 377 377 LOAD DE,#H'FFFF
 004274 030 014  JUMP. L_08CA
    INOC:
 004276 001 070 060 LOAD BC,#H'3038
 004301 030 365  JUMP. L_08B8
    INHEX:
 004303 001 072 060 LOAD BC,#H'303A
 004306 325  PUSH DE
 004307 021 107 101 LOAD DE,#H'4147
    L_08CA:
 004312 315 063 005 CALL L_0533
 004315 365  PUSH AF
 004316 335 345  PUSH IX
 004320 335 041 300 105 LOAD IX,#BUFLIN
 004324 131  LOAD E,C
 004325 016 000  LOAD C,#0
 004327 041 000 000 LOAD HL,#RST00
    L_08DA:
 004332 335 176 000 LOAD A,(IX)
 004335 335 043  INC IX
 11/05/26 07:20:40  SYS.SR                                                       01-30



 004337 267  OR A,A
 004340 050 030  JUMP. EQ,L_08FA
 004342 272  COMP A,D
 004343 060 003  JUMP. CC,L_08E8
 004345 220  SUB A,B
 004346 030 002  JUMP. L_08EA
    L_08E8:
 004350 326 067  SUB A,#67
    L_08EA:
 004352 014  INC C
 004353 051  ADD HL,HL
 004354 051  ADD HL,HL
 004355 051  ADD HL,HL
 004356 313  .B H'CB;BIT 1,E (Zilog)  pas d'équivalent direct 1re gen
 004357 113  .B H'4B
 004360 050 001  JUMP. EQ,L_08F3
 004362 051  ADD HL,HL
    L_08F3:
 004363 205  ADD A,L
 004364 157  LOAD L,A
 004365 060 343  JUMP. CC,L_08DA
 004367 044  INC H
 004370 030 340  JUMP. L_08DA
    L_08FA:
 004372 335 341  POP IX
 004374 361  POP AF
 004375 321  POP DE
 004376 311  RET

 004377 040 164  JUMP. NE,L_0975
 004401 011  ADD HL,BC
 004402 177  LOAD A,A
 004403 127  LOAD D,A
 004404 011  ADD HL,BC
 004405 134  LOAD E,H
 004406 022  LOAD (DE),A
 004407 012  LOAD A,(BC)
 004410 015  DEC C
 004411 102  LOAD B,D
 004412 012  LOAD A,(BC)
 004413 135  LOAD E,L
 004414 052 012 133 LOAD HL,H'5B0A
 004417 066 012  LOAD (HL),#12
 004421 107  LOAD B,A
 004422 277  COMP A,A
 004423 011  ADD HL,BC
 004424 113  LOAD C,E
 004425 322 011 111 JUMP CC,H'4909
 004430 107  LOAD B,A
 004431 013  DEC BC
 004432 114  LOAD C,H
 004433 133  LOAD E,E
 004434 012  LOAD A,(BC)
 004435 122  LOAD D,D
 004436 160  LOAD (HL),B
 004437 012  LOAD A,(BC)
 004440 117  LOAD C,A
 004441 150  LOAD L,B
 004442 013  DEC BC
 004443 127  LOAD D,A
 004444 247  AND A,A
 11/05/26 07:20:40  SYS.SR                                                       01-31



 004445 013  DEC BC
 004446 110  LOAD C,B
 004447 376 011  COMP A,#11
 004451 121  LOAD D,C
 004452 274  COMP A,H
 004453 013  DEC BC
 004454 126  LOAD D,(HL)
 004455 256  XOR A,(HL)
 004456 011  ADD HL,BC
 004457 123  LOAD D,E
 004460 263  OR A,E
 004461 011  ADD HL,BC
 004462 132  LOAD E,D
 004463 276  COMP A,(HL)
 004464 011  ADD HL,BC
 004465 011  ADD HL,BC
 004466 271  COMP A,C
 004467 011  ADD HL,BC
 004470 010  EX AF
 004471 127  LOAD D,A
 004472 011  ADD HL,BC
 004473 000  NOP
 004474 252  XOR A,D
 004475 115  LOAD C,L
 004476 117  LOAD C,A
 004477 116  LOAD C,(HL)
 004500 200  ADD A,B
    L_0941:
 004501 041 000 200 LOAD HL,#H'8000
 004504 042 104 105 LOAD H'4544,HL
 004507 072 177 105 LOAD A,LAMODI
 004512 062 111 105 LOAD H'4549,A
    L_094D:
 004515 016 004  LOAD C,#4
 004517 347 126  .W ?IDIS
 004521 347 032  .W ?BUZZ
 004523 347 123  .W ?TEXT
 004525 354  .B H'EC;orphelin avant 0956
 004526 007  RL A
    L_0957:
 004527 041 111 105 LOAD HL,#H'4549
 004532 313  .B H'CB;SET 0,(HL) (Zilog)  pas d'équivalent direct 1re gen
 004533 306  .B H'C6
 004534 347 043  .W ?RETUR
 004536 041 141 012 LOAD HL,#L_0A61
 004541 347 014  .W ?IADNM
 004543 347 013  .W ?IRST6
    L_0965:
 004545 347 100  .W ?INMON
 004547 021 377 010 LOAD DE,#H'08FF
 004552 347 061  .W ?JUMPC
    L_096C:
 004554 347 136  .W ?TEXTI
 004556 040 077  JUMP. NE,L_09AF
 004560 015  DEC C
 004561 000  NOP
 004562 030 361  JUMP. L_0965
 004564 345  PUSH HL
    L_0975:
 004565 347 100  .W ?INMON
 004567 321  POP DE
 11/05/26 07:20:40  SYS.SR                                                       01-32



 004570 376 117  COMP A,#H'4F
 004572 312 200 013 JUMP EQ,L_0B80
 004575 376 123  COMP A,#H'53
 004577 312 113 012 JUMP EQ,L_0A4B
 004602 267  OR A,A
 004603 355 122  SUBC HL,DE
 004605 043  INC HL
 004606 353  EX HL,DE
 004607 070 343  JUMP. CS,L_096C
 004611 376 040  COMP A,#40
 004613 040 337  JUMP. NE,L_096C
 004615 331  EX BL
 004616 347 100  .W ?INMON
 004620 345  PUSH HL
 004621 331  EX BL
 004622 301  POP BC
 004623 376 075  COMP A,#75
 004625 312 244 011 JUMP EQ,L_09A4
 004630 376 120  COMP A,#H'50
 004632 312 222 014 JUMP EQ,L_0C92
 004635 376 115  COMP A,#H'4D
 004637 312 234 013 JUMP EQ,L_0B9C
 004642 030 310  JUMP. L_096C
    L_09A4:
 004644 174  LOAD A,H
 004645 161  LOAD (HL),C
 004646 043  INC HL
 004647 033  DEC DE
 004650 172  LOAD A,D
 004651 263  OR A,E
 004652 040 370  JUMP. NE,L_09A4
 004654 030 251  JUMP. L_0957
 004656 115  LOAD C,L
    L_09AF:
 004657 347 126  .W ?IDIS
 004661 030 244  JUMP. L_0957
 004663 345  PUSH HL
 004664 052 116 105 LOAD HL,SAVS
 004667 343  EX (SP),HL
 004670 311  RET

 004671 345  PUSH HL
 004672 052 126 105 LOAD HL,SAVT
 004675 343  EX (SP),HL
 004676 311  RET

 004677 050 003  JUMP. EQ,L_09C4
 004701 042 106 105 LOAD SAVLGO,HL
    L_09C4:
 004704 052 106 105 LOAD HL,SAVLGO
 004707 042 100 105 LOAD H'4540,HL
 004712 041 050 105 LOAD HL,#SPUTIL
 004715 042 102 105 LOAD H'4542,HL
 004720 030 005  JUMP. L_09D7
 004722 050 003  JUMP. EQ,L_09D7
 004724 042 100 105 LOAD H'4540,HL
    L_09D7:
 004727 072 111 105 LOAD A,H'4549
 004732 323 000  LOAD $0,A
 004734 062 177 105 LOAD LAMODI,A
 004737 363  IOF
 11/05/26 07:20:40  SYS.SR                                                       01-33



 004740 061 054 105 LOAD SP,#H'452C
 004743 375 341  POP IY
 004745 335 341  POP IX
 004747 010  EX AF
 004750 331  EX BL
 004751 341  POP HL
 004752 321  POP DE
 004753 301  POP BC
 004754 361  POP AF
 004755 010  EX AF
 004756 331  EX BL
 004757 341  POP HL
 004760 321  POP DE
 004761 301  POP BC
 004762 361  POP AF
 004763 355 173 102 105 LOAD SP,H'4542
 004767 345  PUSH HL
 004770 052 100 105 LOAD HL,H'4540
 004773 343  EX (SP),HL
 004774 373  ION
 004775 311  RET

 004776 050 003  JUMP. EQ,L_0A03
 005000 042 100 105 LOAD H'4540,HL
    L_0A03:
 005003 061 050 105 LOAD SP,#SPUTIL
 005006 041 141 012 LOAD HL,#L_0A61
 005011 345  PUSH HL
 005012 041 046 105 LOAD HL,#H'4526
 005015 042 102 105 LOAD H'4542,HL
 005020 030 305  JUMP. L_09D7
 005022 040 003  JUMP. NE,L_0A17
 005024 052 104 105 LOAD HL,H'4544
    L_0A17:
 005027 347 043  .W ?RETUR
    L_0A19:
 005031 347 102  .W ?AFMOH
 005033 076 072  LOAD A,#72
 005035 347 000  .W ?DICAR
 005037 042 104 105 LOAD H'4544,HL
 005042 176  LOAD A,(HL)
 005043 347 101  .W ?AFMON
 005045 347 042  .W ?SPACE
    L_0A27:
 005047 303 145 011 JUMP L_0965
 005052 347 043  .W ?RETUR
 005054 353  EX HL,DE
 005055 052 104 105 LOAD HL,H'4544
 005060 050 001  JUMP. EQ,L_0A33
 005062 163  LOAD (HL),E
    L_0A33:
 005063 043  INC HL
    L_0A34:
 005064 030 343  JUMP. L_0A19
 005066 347 043  .W ?RETUR
 005070 353  EX HL,DE
 005071 052 104 105 LOAD HL,H'4544
 005074 050 001  JUMP. EQ,L_0A3F
 005076 163  LOAD (HL),E
    L_0A3F:
 005077 053  DEC HL
 11/05/26 07:20:40  SYS.SR                                                       01-34



 005100 030 362  JUMP. L_0A34
 005102 353  EX HL,DE
 005103 052 104 105 LOAD HL,H'4544
 005106 050 001  JUMP. EQ,L_0A49
 005110 163  LOAD (HL),E
    L_0A49:
 005111 030 334  JUMP. L_0A27
    L_0A4B:
 005113 353  EX HL,DE
 005114 173  LOAD A,E
 005115 001 000 000 LOAD BC,#RST00
 005120 355 261  CPIR
 005122 342 127 011 JUMP PO,L_0957
 005125 053  DEC HL
 005126 042 104 105 LOAD H'4544,HL
 005131 030 274  JUMP. L_0A17
 005133 315 052 014 CALL L_0C2A
 005136 322 115 011 JUMP CC,L_094D
    L_0A61:
 005141 315 204 012 CALL L_0A84
 005144 341  POP HL
 005145 042 100 105 LOAD H'4540,HL
 005150 355 163 102 105 LOAD H'4542,SP
 005154 052 140 105 LOAD HL,MAXMEM
 005157 371  LOAD SP,HL
 005160 347 107  .W ?PRSTA
 005162 030 325  JUMP. L_0A49
    TRAPP:
 005164 315 204 012 CALL L_0A84
 005167 321  POP DE
 005170 341  POP HL
 005171 042 100 105 LOAD H'4540,HL
 005174 355 163 102 105 LOAD H'4542,SP
 005200 325  PUSH DE
 005201 347 107  .W ?PRSTA
 005203 311  RET

    L_0A84:
 005204 365  PUSH AF
 005205 072 177 105 LOAD A,LAMODI
 005210 062 111 105 LOAD H'4549,A
 005213 361  POP AF
 005214 363  IOF
 005215 343  EX (SP),HL
 005216 042 100 105 LOAD H'4540,HL
 005221 355 163 102 105 LOAD H'4542,SP
 005225 343  EX (SP),HL
 005226 061 100 105 LOAD SP,#H'4540
 005231 365  PUSH AF
 005232 305  PUSH BC
 005233 325  PUSH DE
 005234 345  PUSH HL
 005235 010  EX AF
 005236 331  EX BL
 005237 365  PUSH AF
 005240 305  PUSH BC
 005241 325  PUSH DE
 005242 345  PUSH HL
 005243 010  EX AF
 005244 331  EX BL
 005245 335 345  PUSH IX
 11/05/26 07:20:40  SYS.SR                                                       01-35



 005247 375 345  PUSH IY
 005251 355 173 102 105 LOAD SP,H'4542
 005255 373  ION
 005256 311  RET

    PRSTA:
 005257 347 043  .W ?RETUR
 005261 021 076 105 LOAD DE,#H'453E
 005264 315 037 013 CALL L_0B1F
 005267 052 102 105 LOAD HL,H'4542
 005272 347 042  .W ?SPACE
 005274 347 102  .W ?AFMOH
 005276 176  LOAD A,(HL)
 005277 043  INC HL
 005300 146  LOAD H,(HL)
 005301 157  LOAD L,A
 005302 347 042  .W ?SPACE
 005304 347 102  .W ?AFMOH
 005306 347 042  .W ?SPACE
 005310 052 100 105 LOAD HL,H'4540
 005313 347 102  .W ?AFMOH
 005315 347 136  .W ?TEXTI
 005317 123  LOAD D,E
 005320 132  LOAD E,D
 005321 055  DEC L
 005322 110  LOAD C,B
 005323 055  DEC L
 005324 126  LOAD D,(HL)
 005325 116  LOAD C,(HL)
 005326 103  LOAD B,E
 005327 040 040  JUMP. NE,L_0AF9
 005331 101  LOAD B,C
 005332 040 040  JUMP. NE,L_0AFC
 005334 040 102  JUMP. NE,L_0B20
 005336 040 040  JUMP. NE,L_0B00
 005340 040 103  JUMP. NE,L_0B25
 005342 040 040  JUMP. NE,L_0B04
 005344 040 104  JUMP. NE,L_0B2A
 005346 040 040  JUMP. NE,L_0B08
 005350 040 105  JUMP. NE,L_0B2F
 005352 040 040  JUMP. NE,L_0B0C
 005354 040 040  JUMP. NE,L_0B0E
 005356 104  LOAD B,H
 005357 105  LOAD B,L
 005360 040 040  JUMP. NE,L_0B12
 005362 040 040  JUMP. NE,L_0B14
 005364 040 110  JUMP. NE,L_0B3E
 005366 114  LOAD C,H
 005367 040 040  JUMP. NE,L_0B19
    L_0AF9:
 005371 040 111  JUMP. NE,L_0B44
 005373 130  LOAD E,B
    L_0AFC:
 005374 040 136  JUMP. NE,L_0B5C
 005376 123  LOAD D,E
 005377 120  LOAD D,B
    L_0B00:
 005400 040 111  JUMP. NE,L_0B4B
 005402 131  LOAD E,C
 005403 040  .B 40;orphelin avant L_0B04
    L_0B04:
 11/05/26 07:20:40  SYS.SR                                                       01-36



 005404 136  LOAD E,(HL)
 005405 050 123  JUMP. EQ,L_0B5A
 005407 120  LOAD D,B
    L_0B08:
 005410 051  ADD HL,HL
 005411 040  .B 40;orphelin avant L_0B0A
    L_0B0A:
 005412 111  LOAD C,C
 005413 040  .B 40;orphelin avant L_0B0C
    L_0B0C:
 005414 120  LOAD D,B
 005415 103  LOAD B,E
    L_0B0E:
 005416 040 000  JUMP. NE,L_0B10
    L_0B10:
 005420 033  DEC DE
 005421 315  .B H'CD;orphelin avant L_0B12
    L_0B12:
 005422 037  RRC A
 005423 013  DEC BC
    L_0B14:
 005424 315 070 013 CALL L_0B38
 005427 072  .B 72;orphelin avant 0B18
 005430 053  DEC HL
    L_0B19:
 005431 105  LOAD B,L
 005432 347 101  .W ?AFMON
 005434 347 043  .W ?RETUR
 005436 311  RET

    L_0B1F:
 005437 032  LOAD A,(DE)
    L_0B20:
 005440 347 070  .W ?AFBA
 005442 347 042  .W ?SPACE
 005444 023  INC DE
    L_0B25:
 005445 032  LOAD A,(DE)
 005446 347 101  .W ?AFMON
 005450 347 042  .W ?SPACE
    L_0B2A:
 005452 033  DEC DE
 005453 033  DEC DE
 005454 006 004  LOAD B,#4
 005456 032  LOAD A,(DE)
    L_0B2F:
 005457 033  DEC DE
 005460 347 101  .W ?AFMON
 005462 347 042  .W ?SPACE
 005464 020 370  DECJ,NE B,H'0B2E
 005466 023  INC DE
 005467 023  INC DE
    L_0B38:
 005470 006 002  LOAD B,#2
 005472 032  LOAD A,(DE)
 005473 033  DEC DE
 005474 147  LOAD H,A
 005475 032  LOAD A,(DE)
    L_0B3E:
 005476 033  DEC DE
 005477 157  LOAD L,A
 11/05/26 07:20:40  SYS.SR                                                       01-37



 005500 347 102  .W ?AFMOH
 005502 347 042  .W ?SPACE
    L_0B44:
 005504 020 364  DECJ,NE B,H'0B3A
 005506 311  RET

 005507 040 005  JUMP. NE,L_0B4E
 005511 072  .B 72;orphelin avant 0B4A
 005512 273  COMP A,E
    L_0B4B:
 005513 105  LOAD B,L
 005514 157  LOAD L,A
 005515 267  OR A,A
    L_0B4E:
 005516 175  LOAD A,L
 005517 347 043  .W ?RETUR
 005521 347 101  .W ?AFMON
 005523 062  .B 62;orphelin avant L_0B54
    L_0B54:
 005524 273  COMP A,E
 005525 105  LOAD B,L
 005526 076 044  LOAD A,#44
 005530 347 000  .W ?DICAR
    L_0B5A:
 005532 076 072  LOAD A,#72
    L_0B5C:
 005534 347  RST H'20
    L_0B5D:
 005535 000  NOP
 005536 115  LOAD C,L
 005537 355 170  LOAD A,$(C);?? IN r,(C)  vérifier syntaxe CALM
 005541 347 101  .W ?AFMON
    L_0B63:
 005543 347 042  .W ?SPACE
 005545 303 145 011 JUMP L_0965
 005550 135  LOAD E,L
 005551 040 005  JUMP. NE,L_0B70
 005553 072 272 105 LOAD A,H'45BA
 005556 074  INC A
 005557 137  LOAD E,A
    L_0B70:
 005560 173  LOAD A,E
 005561 347 042  .W ?SPACE
 005563 347 101  .W ?AFMON
 005565 347 042  .W ?SPACE
 005567 072 273 105 LOAD A,H'45BB
 005572 157  LOAD L,A
 005573 267  OR A,A
 005574 347 101  .W ?AFMON
 005576 030 016  JUMP. L_0B8E
    L_0B80:
 005600 347 043  .W ?RETUR
 005602 173  LOAD A,E
 005603 347 101  .W ?AFMON
 005605 347 042  .W ?SPACE
 005607 175  LOAD A,L
 005610 347 101  .W ?AFMON
 005612 175  LOAD A,L
 005613 062 273 105 LOAD H'45BB,A
    L_0B8E:
 005616 076 044  LOAD A,#44
 11/05/26 07:20:40  SYS.SR                                                       01-38



 005620 347 000  .W ?DICAR
 005622 173  LOAD A,E
 005623 062 272 105 LOAD H'45BA,A
 005626 115  LOAD C,L
 005627 355 171  LOAD $(C),A;?? OUT (C),r  vérifier syntaxe CALM
    L_0B99:
 005631 303 127 011 JUMP L_0957
    L_0B9C:
 005634 325  PUSH DE
 005635 305  PUSH BC
 005636 321  POP DE
 005637 301  POP BC
    L_0BA0:
 005640 355 260  LDIR
 005642 042 104 105 LOAD H'4544,HL
 005645 030 362  JUMP. L_0B99
 005647 040 003  JUMP. NE,L_0BAC
 005651 052 104 105 LOAD HL,H'4544
    L_0BAC:
 005654 021 000 101 LOAD DE,#H'4100
 005657 001 000 004 LOAD BC,#H'0400
 005662 030 354  JUMP. L_0BA0
    L_0BB4:
 005664 313  .B H'CB;SET 0,(HL) (Zilog)  pas d'équivalent direct 1re gen
 005665 306  .B H'C6
 005666 257  XOR A,A
 005667 311  RET

    L_0BB8:
 005670 313  .B H'CB;RES 0,(HL) (Zilog)  pas d'équivalent direct 1re gen
 005671 206  .B H'86
 005672 257  XOR A,A
 005673 311  RET

 005674 041 112 105 LOAD HL,#H'454A
 005677 076 110  LOAD A,#H'48
 005701 256  XOR A,(HL)
 005702 167  LOAD (HL),A
 005703 313  .B H'CB;BIT 6,A (Zilog)  pas d'équivalent direct 1re gen
 005704 167  .B H'77
 005705 040 011  JUMP. NE,L_0BD0
 005707 041 164 015 LOAD HL,#H'0D74
    L_0BCA:
 005712 347 042  .W ?SPACE
 005714 347 006  .W ?DITEX
 005716 030 311  JUMP. L_0B99
    L_0BD0:
 005720 041 364 007 LOAD HL,#H'07F4
 005723 030 365  JUMP. L_0BCA
    L_0BD5:
 005725 347 024  .W ?RPR
 005727 107  LOAD B,A
 005730 203  ADD A,E
 005731 137  LOAD E,A
 005732 170  LOAD A,B
 005733 311  RET

    L_0BDC:
 005734 315 325 013 CALL L_0BD5
 005737 170  LOAD A,B
 005740 376 000  COMP A,#0
 11/05/26 07:20:40  SYS.SR                                                       01-39



 005742 050 370  JUMP. EQ,L_0BDC
 005744 075  DEC A
 005745 040 365  JUMP. NE,L_0BDC
 005747 315 325 013 CALL L_0BD5
 005752 267  OR A,A
 005753 040 357  JUMP. NE,L_0BDC
 005755 036 001  LOAD E,#1
 005757 315 325 013 CALL L_0BD5
 005762 326 005  SUB A,#5
 005764 127  LOAD D,A
 005765 315 325 013 CALL L_0BD5
 005770 267  OR A,A
 005771 040 102  JUMP. NE,L_0C3D
 005773 315 325 013 CALL L_0BD5
 005776 157  LOAD L,A
 005777 315 325 013 CALL L_0BD5
 006002 147  LOAD H,A
 006003 025  DEC D
 006004 311  RET

    L_0C05:
 006005 315 325 013 CALL L_0BD5
 006010 167  LOAD (HL),A
 006011 315 021 014 CALL L_0C11
 006014 043  INC HL
 006015 025  DEC D
 006016 040 365  JUMP. NE,L_0C05
 006020 311  RET

    L_0C11:
 006021 323 003  LOAD $3,A
 006023 345  PUSH HL
 006024 174  LOAD A,H
 006025 052 164 105 LOAD HL,H'4574
 006030 167  LOAD (HL),A
 006031 341  POP HL
 006032 311  RET

 006033 252  XOR A,D
 006034 114  LOAD C,H
 006035 117  LOAD C,A
 006036 101  LOAD B,C
 006037 104  LOAD B,H
 006040 200  ADD A,B
 006041 257  XOR A,A
 006042 062 112 105 LOAD H'454A,A
 006045 117  LOAD C,A
 006046 041 000 000 LOAD HL,#RST00
 006051 345  PUSH HL
    L_0C2A:
 006052 345  PUSH HL
 006053 171  LOAD A,C
 006054 267  OR A,A
 006055 040 036  JUMP. NE,L_0C4D
 006057 341  POP HL
    L_0C30:
 006060 315 334 013 CALL L_0BDC
 006063 050 012  JUMP. EQ,L_0C3F
 006065 315 005 014 CALL L_0C05
 006070 315 325 013 CALL L_0BD5
 006073 050 363  JUMP. EQ,L_0C30
 11/05/26 07:20:40  SYS.SR                                                       01-40



    L_0C3D:
 006075 067  SETC
 006076 311  RET

    L_0C3F:
 006077 315 325 013 CALL L_0BD5
 006102 040 371  JUMP. NE,L_0C3D
 006104 175  LOAD A,L
 006105 075  DEC A
 006106 264  OR A,H
 006107 310  RET EQ
 006110 042 106 105 LOAD SAVLGO,HL
 006113 343  EX (SP),HL
 006114 311  RET

    L_0C4D:
 006115 315 334 013 CALL L_0BDC
 006120 301  POP BC
 006121 267  OR A,A
 006122 355 102  SUBC HL,BC
 006124 345  PUSH HL
 006125 140  LOAD H,B
 006126 151  LOAD L,C
    L_0C57:
 006127 315 005 014 CALL L_0C05
 006132 315 325 013 CALL L_0BD5
 006135 040 017  JUMP. NE,L_0C6E
 006137 315 334 013 CALL L_0BDC
 006142 050 007  JUMP. EQ,L_0C6B
 006144 301  POP BC
 006145 305  PUSH BC
 006146 267  OR A,A
 006147 355 102  SUBC HL,BC
 006151 030 354  JUMP. L_0C57
    L_0C6B:
 006153 315 325 013 CALL L_0BD5
    L_0C6E:
 006156 341  POP HL
 006157 040 314  JUMP. NE,L_0C3D
 006161 267  OR A,A
 006162 311  RET

    L_0C73:
 006163 173  LOAD A,E
 006164 315 170 014 CALL L_0C78
 006167 172  LOAD A,D
    L_0C78:
 006170 365  PUSH AF
 006171 201  ADD A,C
 006172 117  LOAD C,A
 006173 361  POP AF
 006174 365  PUSH AF
 006175 347 026  .W ?WPP
 006177 361  POP AF
 006200 311  RET

    L_0C81:
 006201 006 100  LOAD B,#H'40
    L_0C83:
 006203 076 000  LOAD A,#0
 006205 315 170 014 CALL L_0C78
 11/05/26 07:20:40  SYS.SR                                                       01-41



 006210 020 371  DECJ,NE B,L_0C83
 006212 311  RET

    L_0C8B:
 006213 171  LOAD A,C
 006214 057  CPL A
 006215 074  INC A
 006216 315 170 014 CALL L_0C78
 006221 311  RET

    L_0C92:
 006222 375 041 000 000 LOAD IY,#RST00
 006226 315 237 014 CALL L_0C9F
 006231 315 201 014 CALL L_0C81
 006234 303 115 011 JUMP L_094D
    L_0C9F:
 006237 345  PUSH HL
 006240 325  PUSH DE
 006241 305  PUSH BC
 006242 341  POP HL
 006243 042 106 105 LOAD SAVLGO,HL
 006246 341  POP HL
 006247 315 201 014 CALL L_0C81
    L_0CAA:
 006252 016 000  LOAD C,#0
 006254 021 001 000 LOAD DE,#H'0001
 006257 315 163 014 CALL L_0C73
 006262 021 050 000 LOAD DE,#RST28H
 006265 267  OR A,A
 006266 355 122  SUBC HL,DE
 006270 060 005  JUMP. CC,L_0CBF
 006272 031  ADD HL,DE
 006273 021 000 000 LOAD DE,#RST00
 006276 353  EX HL,DE
    L_0CBF:
 006277 345  PUSH HL
 006300 103  LOAD B,E
 006301 353  EX HL,DE
 006302 021 006 000 LOAD DE,#H'0006
 006305 031  ADD HL,DE
 006306 353  EX HL,DE
 006307 315 163 014 CALL L_0C73
 006312 005  DEC B
 006313 004  INC B
 006314 341  POP HL
 006315 321  POP DE
 006316 050 035  JUMP. EQ,L_0CED
 006320 345  PUSH HL
 006321 325  PUSH DE
 006322 375 345  PUSH IY
 006324 341  POP HL
 006325 353  EX HL,DE
 006326 267  OR A,A
 006327 355 122  SUBC HL,DE
 006331 353  EX HL,DE
 006332 315 163 014 CALL L_0C73
 006335 321  POP DE
 006336 341  POP HL
    L_0CDF:
 006337 032  LOAD A,(DE)
 006340 023  INC DE
 11/05/26 07:20:40  SYS.SR                                                       01-42



 006341 315 170 014 CALL L_0C78
 006344 005  DEC B
 006345 040 370  JUMP. NE,L_0CDF
 006347 325  PUSH DE
 006350 315 213 014 CALL L_0C8B
 006353 030 275  JUMP. L_0CAA
    L_0CED:
 006355 052 106 105 LOAD HL,SAVLGO
 006360 353  EX HL,DE
 006361 315 163 014 CALL L_0C73
 006364 030 225  JUMP. L_0C8B
    L_0CF6:
 006366 305  PUSH BC
 006367 107  LOAD B,A
 006370 072 112 105 LOAD A,H'454A
 006373 313 007  ZRL A
 006375 170  LOAD A,B
 006376 301  POP BC
 006377 311  RET

    IMODE:
 006400 062 112 105 LOAD H'454A,A
 006403 311  RET

    AFMOH:
 006404 315 366 014 CALL L_0CF6
 006407 362 136 010 JUMP PL,L_085E
 006412 347 042  .W ?SPACE
 006414 347 131  .W ?AFXHL
 006416 347 042  .W ?SPACE
 006420 311  RET

    AFMON:
 006421 315 366 014 CALL L_0CF6
 006424 362 154 010 JUMP PL,L_086C
 006427 347 042  .W ?SPACE
 006431 303 221 010 JUMP AFHEX
    INMON:
 006434 315 366 014 CALL L_0CF6
 006437 362 051 015 JUMP PL,L_0D29
 006442 347 066  .W ?INHEX
    L_0D24:
 006444 107  LOAD B,A
 006445 171  LOAD A,C
 006446 267  OR A,A
 006447 170  LOAD A,B
 006450 311  RET

    L_0D29:
 006451 347 067  .W ?INOC
 006453 030 367  JUMP. L_0D24
    INCSE:
 006455 176  LOAD A,(HL)
 006456 306 002  ADD A,#2
 006460 047  DAA A
 006461 167  LOAD (HL),A
 006462 043  INC HL
    L_0D33:
 006463 176  LOAD A,(HL)
 006464 316 000  ADDC A,#0
 006466 047  DAA A
 11/05/26 07:20:40  SYS.SR                                                       01-43



 006467 376 140  COMP A,#H'60
    L_0D39:
 006471 070 001  JUMP. CS,L_0D3C
 006473 257  XOR A,A
    L_0D3C:
 006474 077  .B H'3F;CCF (toggle CF) - mnémonique 1re gen ?
 006475 167  LOAD (HL),A
 006476 043  INC HL
 006477 311  RET

    INCHO:
 006500 315 063 015 CALL L_0D33
 006503 176  LOAD A,(HL)
 006504 316 000  ADDC A,#0
 006506 047  DAA A
 006507 376 044  COMP A,#44
 006511 030 356  JUMP. L_0D39
    INCDA:
 006513 176  LOAD A,(HL)
 006514 316 000  ADDC A,#0
 006516 047  DAA A
 006517 305  PUSH BC
 006520 345  PUSH HL
 006521 043  INC HL
 006522 116  LOAD C,(HL)
 006523 006 000  LOAD B,#0
 006525 041 152 015 LOAD HL,#H'0D6A
 006530 011  ADD HL,BC
 006531 276  COMP A,(HL)
 006532 341  POP HL
 006533 301  POP BC
 006534 315 145 015 CALL L_0D65
 006537 176  LOAD A,(HL)
 006540 316 000  ADDC A,#0
 006542 047  DAA A
 006543 376 023  COMP A,#23
    L_0D65:
 006545 070 325  JUMP. CS,L_0D3C
 006547 076 001  LOAD A,#1
 006551 030 321  JUMP. L_0D3C
 006553 062 051 062 LOAD H'3229,A
 006556 061 062 061 LOAD SP,#H'3132
 006561 062 062 061 LOAD H'3132,A
 006564 117  LOAD C,A
 006565 103  LOAD B,E
 006566 124  LOAD D,H
 006567 101  LOAD B,C
 006570 114  LOAD C,H
 006571 000  NOP
 006572 062 061 062 LOAD H'3231,A
    INCYE:
 006575 176  LOAD A,(HL)
 006576 316 000  ADDC A,#0
 006600 047  DAA A
 006601 167  LOAD (HL),A
 006602 043  INC HL
 006603 311  RET

    AFTIM:
 006604 365  PUSH AF
 006605 305  PUSH BC
 11/05/26 07:20:40  SYS.SR                                                       01-44



 006606 107  LOAD B,A
    L_0D87:
 006607 313  .B H'CB;SLA B (Zilog)  pas de mnémonique 1re gen
 006610 040  .B H'20
 006611 060 021  JUMP. CC,L_0D9C
 006613 076 072  LOAD A,#72
 006615 347 000  .W ?DICAR
    L_0D8F:
 006617 176  LOAD A,(HL)
 006620 053  DEC HL
 006621 347 071  .W ?AFHEX
 006623 347 042  .W ?SPACE
 006625 313  .B H'CB;SLA B (Zilog)  pas de mnémonique 1re gen
 006626 040  .B H'20
 006627 070 366  JUMP. CS,L_0D8F
 006631 301  POP BC
 006632 361  POP AF
 006633 311  RET

    L_0D9C:
 006634 176  LOAD A,(HL)
 006635 053  DEC HL
 006636 347 042  .W ?SPACE
 006640 347 071  .W ?AFHEX
 006642 030 343  JUMP. L_0D87
    BINBC:
 006644 305  PUSH BC
 006645 325  PUSH DE
 006646 353  EX HL,DE
 006647 041 272 105 LOAD HL,#H'45BA
 006652 006 004  LOAD B,#4
    L_0DAC:
 006654 345  PUSH HL
 006655 305  PUSH BC
 006656 001 012 000 LOAD BC,#H'000A
 006661 041 000 000 LOAD HL,#RST00
 006664 347 060  .W ?DIV
 006666 175  LOAD A,L
 006667 301  POP BC
 006670 341  POP HL
 006671 355  .B H'ED;RRD (rotation nibble BCD A(HL))  mnémonique 1re gen ?
 006672 147  .B H'67
 006673 313  .B H'CB;BIT 0,B (Zilog)  pas d'équivalent direct 1re gen
 006674 100  .B H'40
 006675 050 001  JUMP. EQ,L_0DC0
 006677 043  INC HL
    L_0DC0:
 006700 020 352  DECJ,NE B,L_0DAC
 006702 052 272 105 LOAD HL,H'45BA
 006705 173  LOAD A,E
 006706 321  POP DE
 006707 301  POP BC
 006710 311  RET

    BCDBI:
 006711 365  PUSH AF
 006712 305  PUSH BC
 006713 325  PUSH DE
 006714 042 272 105 LOAD H'45BA,HL
 006717 041 273 105 LOAD HL,#H'45BB
 006722 021 000 000 LOAD DE,#RST00
 11/05/26 07:20:40  SYS.SR                                                       01-45



 006725 006 004  LOAD B,#4
    L_0DD7:
 006727 257  XOR A,A
 006730 355  .B H'ED;RLD (rotation nibble BCD A(HL))  mnémonique 1re gen ?
 006731 157  .B H'6F
 006732 345  PUSH HL
 006733 305  PUSH BC
 006734 001 012 000 LOAD BC,#H'000A
 006737 140  LOAD H,B
 006740 157  LOAD L,A
 006741 347 057  .W ?MUL
 006743 301  POP BC
 006744 341  POP HL
 006745 313  .B H'CB;BIT 0,B (Zilog)  pas d'équivalent direct 1re gen
 006746 100  .B H'40
 006747 050 001  JUMP. EQ,L_0DEA
 006751 053  DEC HL
    L_0DEA:
 006752 020 353  DECJ,NE B,L_0DD7
 006754 353  EX HL,DE
 006755 321  POP DE
    L_0DEE:
 006756 301  POP BC
 006757 361  POP AF
 006760 311  RET

    HLDEL:
 006761 042 272 105 LOAD H'45BA,HL
 006764 030 007  JUMP. L_0DFD
    DELAY:
 006766 042 272 105 LOAD H'45BA,HL
 006771 353  EX HL,DE
 006772 347 117  .W ?GETAR
 006774 353  EX HL,DE
    L_0DFD:
 006775 365  PUSH AF
 006776 305  PUSH BC
    L_0DFF:
 006777 006 255  LOAD B,#H'AD
    L_0E01:
 007001 020 376  DECJ,NE B,L_0E01
 007003 053  DEC HL
 007004 175  LOAD A,L
 007005 264  OR A,H
 007006 040 367  JUMP. NE,L_0DFF
 007010 052 272 105 LOAD HL,H'45BA
 007013 030 341  JUMP. L_0DEE
 007015 123  LOAD D,E
 007016 131  LOAD E,C
 007017 123  LOAD D,E
 007020 040 062  JUMP. NE,L_0E44
 007022 055  DEC L
 007023 062 040 052 LOAD H'2A20,A
 007026 040 000  JUMP. NE,L_0E18
    L_0E18:
 007030 040 113  JUMP. NE,L_0E65
 007032 015  DEC C
 007033 000  NOP
    DOSPACE:
 007034 365  PUSH AF
 007035 076 040  LOAD A,#40
 11/05/26 07:20:40  SYS.SR                                                       01-46



    L_0E1F:
 007037 347 000  .W ?DICAR
 007041 361  POP AF
 007042 311  RET

    RETUR:
 007043 365  PUSH AF
 007044 076 015  LOAD A,#15
 007046 030 367  JUMP. L_0E1F
    DOTAB:
 007050 365  PUSH AF
 007051 076 011  LOAD A,#11
 007053 030 362  JUMP. L_0E1F
    BACKD:
 007055 365  PUSH AF
 007056 076 010  LOAD A,#10
 007060 030 355  JUMP. L_0E1F
    CLEAR:
 007062 365  PUSH AF
 007063 076  .B 76;orphelin avant L_0E34
    L_0E34:
 007064 002  LOAD (BC),A
 007065 030 350  JUMP. L_0E1F
    BACK:
 007067 345  PUSH HL
 007070 325  PUSH DE
 007071 052 164 105 LOAD HL,H'4574
 007074 053  DEC HL
 007075 021 000 100 LOAD DE,#SALPHA
 007100 347 056  .W ?COMPH
 007102 060 001  JUMP. CC,H'0E45
    L_0E44:
 007104 043  INC HL
 007105 175  LOAD A,L
 007106 346 077  AND A,#77
 007110 176  LOAD A,(HL)
 007111 042 164 105 LOAD H'4574,HL
 007114 321  POP DE
 007115 341  POP HL
 007116 311  RET

    L_0E4F:
 007117 345  PUSH HL
 007120 267  OR A,A
 007121 355 122  SUBC HL,DE
 007123 341  POP HL
 007124 311  RET

    RDCLK_PRIM:
 007125 325  PUSH DE
 007126 305  PUSH BC
 007127 365  PUSH AF
 007130 353  EX HL,DE
 007131 257  XOR A,A
 007132 323 010  LOAD $10,A
 007134 006 004  LOAD B,#4
 007136 016 017  LOAD C,#17
 007140 313  .B H'CB;SET 2,A (Zilog)  pas d'équivalent direct 1re gen
 007141 327  .B H'D7
 007142 313  .B H'CB;SET 1,A (Zilog)  pas d'équivalent direct 1re gen
 007143 317  .B H'CF
 11/05/26 07:20:40  SYS.SR                                                       01-47



    L_0E64:
 007144 037  RRC A
    L_0E65:
 007145 313 031  RRC C
 007147 027  RLC A
 007150 323 010  LOAD $10,A
 007152 343  EX (SP),HL
 007153 343  EX (SP),HL
 007154 313  .B H'CB;SET 3,A (Zilog)  pas d'équivalent direct 1re gen
 007155 337  .B H'DF
 007156 323 010  LOAD $10,A
 007160 343  EX (SP),HL
 007161 343  EX (SP),HL
 007162 313  .B H'CB;RES 3,A (Zilog)  pas d'équivalent direct 1re gen
 007163 237  .B H'9F
 007164 020 356  DECJ,NE B,L_0E64
 007166 313  .B H'CB;RES 1,A (Zilog)  pas d'équivalent direct 1re gen
 007167 217  .B H'8F
 007170 016 007  LOAD C,#7
    L_0E7A:
 007172 006 010  LOAD B,#10
    L_0E7C:
 007174 323 010  LOAD $10,A
 007176 343  EX (SP),HL
 007177 343  EX (SP),HL
 007200 365  PUSH AF
 007201 333 010  LOAD A,$10
 007203 037  RRC A
 007204 313 036  RRC (HL)
 007206 361  POP AF
 007207 313  .B H'CB;SET 3,A (Zilog)  pas d'équivalent direct 1re gen
 007210 337  .B H'DF
 007211 323 010  LOAD $10,A
 007213 343  EX (SP),HL
 007214 343  EX (SP),HL
 007215 313  .B H'CB;RES 3,A (Zilog)  pas d'équivalent direct 1re gen
 007216 237  .B H'9F
 007217 020 353  DECJ,NE B,L_0E7C
 007221 043  INC HL
 007222 015  DEC C
 007223 040 345  JUMP. NE,L_0E7A
    L_0E95:
 007225 257  XOR A,A
 007226 323 010  LOAD $10,A
 007230 353  EX HL,DE
 007231 361  POP AF
 007232 301  POP BC
 007233 321  POP DE
 007234 311  RET

    WRCLK_PRIM:
 007235 325  PUSH DE
 007236 305  PUSH BC
 007237 365  PUSH AF
 007240 353  EX HL,DE
 007241 257  XOR A,A
 007242 323 010  LOAD $10,A
 007244 006 004  LOAD B,#4
 007246 016 007  LOAD C,#7
 007250 313  .B H'CB;SET 2,A (Zilog)  pas d'équivalent direct 1re gen
 007251 327  .B H'D7
 11/05/26 07:20:40  SYS.SR                                                       01-48



 007252 313  .B H'CB;SET 1,A (Zilog)  pas d'équivalent direct 1re gen
 007253 317  .B H'CF
    L_0EAC:
 007254 037  RRC A
 007255 313 031  RRC C
 007257 027  RLC A
 007260 323 010  LOAD $10,A
 007262 343  EX (SP),HL
 007263 343  EX (SP),HL
 007264 313  .B H'CB;SET 3,A (Zilog)  pas d'équivalent direct 1re gen
 007265 337  .B H'DF
 007266 323 010  LOAD $10,A
 007270 343  EX (SP),HL
 007271 343  EX (SP),HL
 007272 313  .B H'CB;RES 3,A (Zilog)  pas d'équivalent direct 1re gen
 007273 237  .B H'9F
 007274 020 356  DECJ,NE B,L_0EAC
 007276 016 007  LOAD C,#7
    L_0EC0:
 007300 006 010  LOAD B,#10
    L_0EC2:
 007302 037  RRC A
 007303 313 026  RLC (HL)
 007305 027  RLC A
 007306 323 010  LOAD $10,A
 007310 343  EX (SP),HL
 007311 343  EX (SP),HL
 007312 313  .B H'CB;SET 3,A (Zilog)  pas d'équivalent direct 1re gen
 007313 337  .B H'DF
 007314 323 010  LOAD $10,A
 007316 343  EX (SP),HL
 007317 343  EX (SP),HL
 007320 313  .B H'CB;RES 3,A (Zilog)  pas d'équivalent direct 1re gen
 007321 237  .B H'9F
 007322 020 356  DECJ,NE B,L_0EC2
 007324 043  INC HL
 007325 015  DEC C
 007326 040 350  JUMP. NE,L_0EC0
 007330 030 273  JUMP. L_0E95
    SJOUR_HND:
 007332 041 005 000 LOAD HL,#H'0005
 007335 267  OR A,A
 007336 030 017  JUMP. L_0EEF
    SDAY_HND:
 007340 041 002 000 LOAD HL,#H'0002
 007343 021 001 000 LOAD DE,#H'0001
 007346 030 006  JUMP. L_0EEE
    STOD_HND:
 007350 041 000 000 LOAD HL,#RST00
 007353 021 005 000 LOAD DE,#H'0005
    L_0EEE:
 007356 067  SETC
    L_0EEF:
 007357 315 036 017 CALL HRBUF_OFS
 007362 167  LOAD (HL),A
 007363 060 004  JUMP. CC,L_0EF9
 007365 043  INC HL
 007366 160  LOAD (HL),B
 007367 031  ADD HL,DE
 007370 161  LOAD (HL),C
    L_0EF9:
 11/05/26 07:20:40  SYS.SR                                                       01-49



 007371 021 000 105 LOAD DE,#ENDALP
 007374 347 141  .W ?WRCLK
 007376 311  RET

    GJOUR_HND:
 007377 041 005 000 LOAD HL,#H'0005
 007402 267  OR A,A
 007403 030 017  JUMP. L_0F14
    GDAY_HND:
 007405 041 002 000 LOAD HL,#H'0002
 007410 021 001 000 LOAD DE,#H'0001
 007413 030 006  JUMP. L_0F13
    GTOD_HND:
 007415 041 000 000 LOAD HL,#RST00
 007420 021 005 000 LOAD DE,#H'0005
    L_0F13:
 007423 067  SETC
    L_0F14:
 007424 315 036 017 CALL HRBUF_OFS
 007427 176  LOAD A,(HL)
 007430 320  RET CC
 007431 043  INC HL
 007432 106  LOAD B,(HL)
 007433 031  ADD HL,DE
 007434 116  LOAD C,(HL)
 007435 311  RET

    HRBUF_OFS:
 007436 325  PUSH DE
 007437 021 000 105 LOAD DE,#ENDALP
 007442 347 140  .W ?RDCLK
 007444 365  PUSH AF
 007445 031  ADD HL,DE
 007446 361  POP AF
 007447 321  POP DE
 007450 311  RET

 007451 104  .B H'44
 007452 011  .B H'09
 007453 103  .B H'43
 007454 054  .B H'2C
 007455 050  .B H'28
 007456 110  .B H'48
 007457 114  .B H'4C

    ;TABLE DE DISPATCH RST 20H : 104 ENTREES (CODES 00..67)
    ;CHAQUE .W EST L'ADRESSE DU HANDLER POUR LE CODE CORRESPONDANT

    DISP_RST20H:
 007460 057 004  .W DICAR;CODE 00H = ?DICAR
 007462 311 004  .W GETCA;CODE 01H = ?GETCA
 007464 221 002  .W ITIME;CODE 02H = ?ITIME
 007466 225 002  .W ITIMA;CODE 03H = ?ITIMA
 007470 231 002  .W IRTC;CODE 04H = ?IRTC
 007472 046 005  .W GETLI;CODE 05H = ?GETLI
 007474 220 004  .W DITEX;CODE 06H = ?DITEX
 007476 241 002  .W IRST1;CODE 07H = ?IRST1
 007500 245 002  .W IRST2;CODE 08H = ?IRST2
 007502 251 002  .W IRST7;CODE 09H = ?IRST7
 007504 255 002  .W IRST5;CODE 0AH = ?IRST5
 007506 261 002  .W IRST6;CODE 0BH = ?IRST6
 11/05/26 07:20:40  SYS.SR                                                       01-50



 007510 265 002  .W IADNM;CODE 0CH = ?IADNM
 007512 024 005  .W IFCAR;CODE 0DH = ?IFCAR
 007514 041 005  .W GETFO;CODE 0EH = ?GETFO
 007516 271 002  .W ENI50;CODE 0FH = ?ENI50
 007520 011 003  .W IDICA;CODE 10H = ?IDICA
 007522 351 002  .W IALPH;CODE 11H = ?IALPH
 007524 361 002  .W IGRA;CODE 12H = ?IGRA
 007526 371 002  .W IAGRA;CODE 13H = ?IAGRA
 007530 175 005  .W RPR;CODE 14H = ?RPR
 007532 202 005  .W RMOD;CODE 15H = ?RMOD
 007534 253 005  .W WPP;CODE 16H = ?WPP
 007536 260 005  .W WMOD;CODE 17H = ?WMOD
 007540 313 002  .W CALPH;CODE 18H = ?CALPH
 007542 332 002  .W CGRA;CODE 19H = ?CGRA
 007544 150 003  .W L_0368;CODE 1AH = ?BUZZ
 007546 215 002  .W MEM;CODE 1BH = ?MEM
 007550 151 002  .W BRANC;CODE 1CH = ?BRANC
 007552 063 005  .W L_0533;CODE 1DH = ?GETLB
 007554 254 004  .W DITEB;CODE 1EH = ?DITEB
 007556 235 002  .W INTUS;CODE 1FH = ?INTUS
 007560 111 003  .W SETCU;CODE 20H = ?SETCU
 007562 352 005  .W GETCU;CODE 21H = ?GETCU
 007564 034 016  .W DOSPACE;CODE 22H = ?SPACE
 007566 043 016  .W RETUR;CODE 23H = ?RETUR
 007570 225 005  .W IFRPR;CODE 24H = ?IFRPR
 007572 232 005  .W IFRMO;CODE 25H = ?IFRMO
 007574 310 005  .W IFWPP;CODE 26H = ?IFWPP
 007576 315 005  .W IFWMO;CODE 27H = ?IFWMO
 007600 207 005  .W RPAR;CODE 28H = ?RPAR
 007602 237 005  .W IFRPA;CODE 29H = ?IFRPA
 007604 265 005  .W WPAR;CODE 2AH = ?WPAR
 007606 322 005  .W IFWPA;CODE 2BH = ?IFWPA
 007610 105 003  .W IPOIN;CODE 2CH = ?IPOIN
 007612 337 005  .W L_05DF;CODE 2DH = ?JUMPI
 007614 117 016  .W L_0E4F;CODE 2EH = ?COMPH
 007616 001 002  .W MUL;CODE 2FH = ?MUL
 007620 025 002  .W DIV;CODE 30H = ?DIV
 007622 136 002  .W JUMPC;CODE 31H = ?JUMPC
 007624 113 002  .W SCAR;CODE 32H = ?SCAR
 007626 341 005  .W CALLI;CODE 33H = ?CALLI
 007630 075 010  .W ALGRA;CODE 34H = ?ALGRA
 007632 265 010  .W INDEC;CODE 35H = ?INDEC
 007634 303 010  .W INHEX;CODE 36H = ?INHEX
 007636 276 010  .W INOC;CODE 37H = ?INOC
 007640 201 010  .W AFBA;CODE 38H = ?AFBA
 007642 221 010  .W AFHEX;CODE 39H = ?AFHEX
 007644 155 010  .W AFOCA;CODE 3AH = ?AFOCA
 007646 136 010  .W L_085E;CODE 3BH = ?AFOHL
 007650 266 004  .W L_04B6;CODE 3CH = ?EFLI
 007652 215 003  .W PLAY;CODE 3DH = ?PLAY
 007654 157 003  .W BEEP;CODE 3EH = ?BEEP
 007656 112 010  .W GRAAL;CODE 3FH = ?GRAAL
 007660 034 015  .W INMON;CODE 40H = ?INMON
 007662 021 015  .W AFMON;CODE 41H = ?AFMON
 007664 004 015  .W AFMOH;CODE 42H = ?AFMOH
 007666 052 014  .W L_0C2A;CODE 43H = ?LOADB
 007670 237 014  .W L_0C9F;CODE 44H = ?PUNBI
 007672 201 014  .W L_0C81;CODE 45H = ?AMORC
 007674 204 012  .W L_0A84;CODE 46H = ?SAVES
 007676 257 012  .W PRSTA;CODE 47H = ?PRSTA
 007700 327 011  .W L_09D7;CODE 48H = ?EXECU
 11/05/26 07:20:40  SYS.SR                                                       01-51



 007702 055 015  .W INCSE;CODE 49H = ?INCSE
 007704 100 015  .W INCHO;CODE 4AH = ?INCHO
 007706 113 015  .W INCDA;CODE 4BH = ?INCDA
 007710 175 015  .W INCYE;CODE 4CH = ?INCYE
 007712 204 015  .W AFTIM;CODE 4DH = ?AFTIM
 007714 044 010  .W COMPT;CODE 4EH = ?COMPT
 007716 076 002  .W GETAR;CODE 4FH = ?GETAR
 007720 000 015  .W IMODE;CODE 50H = ?IMODE
 007722 050 016  .W DOTAB;CODE 51H = ?TAB
 007724 062 016  .W CLEAR;CODE 52H = ?CLEAR
 007726 232 004  .W TEXT;CODE 53H = ?TEXT
 007730 244 015  .W BINBC;CODE 54H = ?BINBC
 007732 311 015  .W BCDBI;CODE 55H = ?BCDBI
 007734 065 003  .W IDIS;CODE 56H = ?IDIS
 007736 366 015  .W DELAY;CODE 57H = ?DELAY
 007740 055 016  .W BACKD;CODE 58H = ?BACKD
    L_0FE2:
 007742 256 010  .W AFXHL;CODE 59H = ?AFXHL
 007744 225 003  .W EFECR;CODE 5AH = ?EFECR
 007746 361 015  .W HLDEL;CODE 5BH = ?HLDEL
 007750 101 011  .W L_0941;CODE 5CH = ?MON
 007752 164 012  .W TRAPP;CODE 5DH = ?TRAPP
 007754 247 004  .W TEXTI;CODE 5EH = ?TEXTI
 007756 067 016  .W BACK;CODE 5FH = ?BACK
 007760 125 016  .W RDCLK_PRIM;CODE 60H = ?RDCLK
 007762 235 016  .W WRCLK_PRIM;CODE 61H = ?WRCLK
 007764 332 016  .W SJOUR_HND;CODE 62H = ?SJOUR
 007766 340 016  .W SDAY_HND;CODE 63H = ?SDAY
 007770 350 016  .W STOD_HND;CODE 64H = ?STOD
 007772 377 016  .W GJOUR_HND;CODE 65H = ?GJOUR
 007774 005 017  .W GDAY_HND;CODE 66H = ?GDAY
 007776 015 017  .W GTOD_HND;CODE 67H = ?GTOD

    000001 .END


Pass 2 complete  03 sec 
1149 references
0/0/0 if/else/endif
0 inserted files
Source file 2944 usefull lines long
Binary file 010000 bytes long
Assembly time: 07 sec  25234 lines/min

